;--------------------------------------------------------
; File Created by SDCC : free open source ISO C Compiler
; Version 4.5.1 #15267 (Linux)
;--------------------------------------------------------
	.module sprite_component
	
;--------------------------------------------------------
; Public variables in this module
;--------------------------------------------------------
	.globl _spriteIDByZIndex
	.globl _spriteComponent
;--------------------------------------------------------
; special function registers
;--------------------------------------------------------
;--------------------------------------------------------
; ram data
;--------------------------------------------------------
	.area _DATA
;--------------------------------------------------------
; ram data
;--------------------------------------------------------
	.area _INITIALIZED
_spriteComponent::
	.ds 500
_spriteIDByZIndex::
	.ds 50
;--------------------------------------------------------
; absolute external ram data
;--------------------------------------------------------
	.area _DABS (ABS)
;--------------------------------------------------------
; global & static initialisations
;--------------------------------------------------------
	.area _HOME
	.area _GSINIT
	.area _GSFINAL
	.area _GSINIT
;--------------------------------------------------------
; Home
;--------------------------------------------------------
	.area _HOME
	.area _HOME
;--------------------------------------------------------
; code
;--------------------------------------------------------
	.area _CODE
;Source/Engine/Components/../Libraries/vec2.h:32: static inline void vec2_set(vec2 *v, int x, int y) {
;	---------------------------------
; Function vec2_set
; ---------------------------------
_vec2_set:
	ld	l, c
	ld	h, b
;Source/Engine/Components/../Libraries/vec2.h:33: v->x = F12(x);
	ld	c, e
	ld	b, d
	add	hl, hl
	add	hl, hl
	add	hl, hl
	add	hl, hl
	ld	a, l
	ld	(bc), a
	inc	bc
	ld	a, h
	ld	(bc), a
;Source/Engine/Components/../Libraries/vec2.h:34: v->y = F12(y);
	inc	de
	inc	de
	ldhl	sp,	#2
	ld	a, (hl+)
	ld	b, (hl)
	add	a, a
	rl	b
	add	a, a
	rl	b
	add	a, a
	rl	b
	add	a, a
	rl	b
	ld	c, a
	ld	(de), a
	inc	de
	ld	a, b
	ld	(de), a
;Source/Engine/Components/../Libraries/vec2.h:35: }
	pop	hl
	pop	af
	jp	(hl)
;Source/Engine/Components/../Libraries/vec2.h:38: static inline void vec2_add(vec2 *a, const vec2 *b) {
;	---------------------------------
; Function vec2_add
; ---------------------------------
_vec2_add:
	add	sp, #-8
	ldhl	sp,	#6
	ld	a, e
	ld	(hl+), a
	ld	(hl), d
	ldhl	sp,	#4
	ld	a, c
	ld	(hl+), a
;Source/Engine/Components/../Libraries/vec2.h:39: a->x += b->x;
	ld	a, b
	ld	(hl+), a
	ld	a, (hl)
	ldhl	sp,	#2
	ld	(hl), a
	ldhl	sp,	#7
	ld	a, (hl)
	ldhl	sp,	#3
	ld	(hl-), a
	ld	a, (hl+)
	ld	e, a
	ld	a, (hl+)
	ld	d, a
	ld	a, (de)
	ld	c, a
	inc	de
	ld	a, (de)
	ld	b, a
	ld	a, (hl+)
	ld	e, a
	ld	d, (hl)
	ld	a, (de)
	ld	l, a
	inc	de
	ld	a, (de)
	ld	h, a
	add	hl, bc
	ld	c, l
	ld	b, h
	ldhl	sp,	#2
	ld	a, (hl+)
	ld	h, (hl)
	ld	l, a
	ld	a, c
	ld	(hl+), a
	ld	(hl), b
;Source/Engine/Components/../Libraries/vec2.h:40: a->y += b->y;
	ldhl	sp,	#6
	ld	a, (hl+)
	ld	c, a
	ld	b, (hl)
	inc	bc
	inc	bc
	ld	e, c
	ld	d, b
	ld	a, (de)
	ldhl	sp,	#0
	ld	(hl+), a
	inc	de
	ld	a, (de)
	ld	(hl), a
	ldhl	sp,	#4
	ld	a, (hl+)
	ld	h, (hl)
	ld	l, a
	inc	hl
	inc	hl
	ld	e, l
	ld	d, h
	ld	a, (de)
	ldhl	sp,	#2
	ld	(hl+), a
	inc	de
	ld	a, (de)
	ld	(hl), a
	ldhl	sp,#2
	ld	a, (hl+)
	ld	e, a
	ld	d, (hl)
	pop	hl
	push	hl
	add	hl, de
	ld	e, l
	ld	d, h
	ld	a, e
	ld	(bc), a
	inc	bc
	ld	a, d
	ld	(bc), a
;Source/Engine/Components/../Libraries/vec2.h:41: }
	add	sp, #8
	ret
;Source/Engine/Components/../Libraries/vec2.h:44: static inline void vec2_sub(vec2 *a, const vec2 *b) {
;	---------------------------------
; Function vec2_sub
; ---------------------------------
_vec2_sub:
	add	sp, #-6
	ldhl	sp,	#4
	ld	a, e
	ld	(hl+), a
	ld	(hl), d
	ldhl	sp,	#2
	ld	a, c
	ld	(hl+), a
;Source/Engine/Components/../Libraries/vec2.h:45: a->x -= b->x;
	ld	a, b
	ld	(hl+), a
	ld	a, (hl)
	ldhl	sp,	#0
	ld	(hl), a
	ldhl	sp,	#5
	ld	a, (hl)
	ldhl	sp,	#1
	ld	(hl+), a
	pop	de
	push	de
	ld	a, (de)
	ld	c, a
	inc	de
	ld	a, (de)
	ld	b, a
	ld	a, (hl+)
	ld	e, a
	ld	d, (hl)
	ld	a, (de)
	ld	l, a
	inc	de
	ld	a, (de)
	ld	h, a
	ld	a, c
	sub	a, l
	ld	c, a
	ld	a, b
	sbc	a, h
	ld	b, a
	pop	hl
	push	hl
	ld	a, c
	ld	(hl+), a
	ld	(hl), b
;Source/Engine/Components/../Libraries/vec2.h:46: a->y -= b->y;
	ldhl	sp,#4
	ld	a, (hl+)
	ld	e, a
	ld	d, (hl)
	ld	hl, #0x0002
	add	hl, de
	inc	sp
	inc	sp
	ld	e, l
	ld	d, h
	push	de
	ld	a, (de)
	ld	c, a
	inc	de
	ld	a, (de)
	ld	b, a
	ldhl	sp,	#2
	ld	a, (hl+)
	ld	h, (hl)
	ld	l, a
	inc	hl
	inc	hl
	ld	a,	(hl+)
	ld	h, (hl)
	ld	l, a
	ld	a, c
	sub	a, l
	ld	c, a
	ld	a, b
	sbc	a, h
	ld	b, a
	pop	hl
	push	hl
	ld	a, c
	ld	(hl+), a
	ld	(hl), b
;Source/Engine/Components/../Libraries/vec2.h:47: }
	add	sp, #6
	ret
;Source/Engine/Components/../Libraries/vec2.h:50: static inline void vec2_scale(vec2 *a, f12 s) {
;	---------------------------------
; Function vec2_scale
; ---------------------------------
_vec2_scale:
	add	sp, #-14
	ldhl	sp,	#12
	ld	a, e
	ld	(hl+), a
	ld	(hl), d
	ldhl	sp,	#10
	ld	a, c
	ld	(hl+), a
;Source/Engine/Components/../Libraries/vec2.h:52: a->x = ((int32_t)a->x * s) >> 4;
	ld	a, b
	ld	(hl+), a
	ld	a, (hl)
	ldhl	sp,	#0
	ld	(hl), a
	ldhl	sp,	#13
	ld	a, (hl)
	ldhl	sp,	#1
	ld	(hl+), a
	pop	de
	push	de
	ld	a, (de)
	ld	c, a
	inc	de
	ld	a, (de)
	ld	(hl), c
	inc	hl
	ld	(hl+), a
	rlca
	sbc	a, a
	ld	(hl+), a
	ld	(hl), a
	ldhl	sp,	#10
	ld	a, (hl)
	ldhl	sp,	#6
	ld	(hl), a
	ldhl	sp,	#11
	ld	a, (hl)
	ldhl	sp,	#7
	ld	(hl+), a
	rlca
	sbc	a, a
	ld	(hl+), a
	ld	(hl-), a
	ld	a, (hl+)
	ld	e, a
	ld	d, (hl)
	push	de
	ldhl	sp,	#8
	ld	a, (hl+)
	ld	e, a
	ld	d, (hl)
	push	de
	ldhl	sp,	#6
	ld	a, (hl+)
	ld	c, a
	ld	a, (hl+)
	ld	b, a
	ld	a, (hl+)
	ld	e, a
	ld	d, (hl)
	call	__mullong
	ld	a, #0x04
00103$:
	sra	d
	rr	e
	rr	b
	rr	c
	dec	a
	jr	NZ, 00103$
	pop	hl
	push	hl
	ld	a, c
	ld	(hl+), a
	ld	(hl), b
;Source/Engine/Components/../Libraries/vec2.h:53: a->y = ((int32_t)a->y * s) >> 4;
	ldhl	sp,#12
	ld	a, (hl+)
	ld	e, a
	ld	d, (hl)
	ld	hl, #0x0002
	add	hl, de
	push	hl
	ld	a, l
	ldhl	sp,	#6
	ld	(hl), a
	pop	hl
	ld	a, h
	ldhl	sp,	#5
	ld	(hl-), a
	ld	a, (hl+)
	ld	e, a
	ld	d, (hl)
	ld	a, (de)
	ld	c, a
	inc	de
	ld	a, (de)
	ld	b, a
	rlca
	sbc	a, a
	ld	e, a
	ld	d, a
	ldhl	sp,	#8
	ld	a, (hl+)
	ld	h, (hl)
	ld	l, a
	push	hl
	ldhl	sp,	#8
	ld	a, (hl+)
	ld	h, (hl)
	ld	l, a
	push	hl
	call	__mullong
	ld	a, #0x04
00105$:
	sra	d
	rr	e
	rr	b
	rr	c
	dec	a
	jr	NZ, 00105$
	ldhl	sp,	#4
	ld	a, (hl+)
	ld	h, (hl)
	ld	l, a
	ld	a, c
	ld	(hl+), a
	ld	(hl), b
;Source/Engine/Components/../Libraries/vec2.h:54: }
	add	sp, #14
	ret
;Source/Engine/Components/../Libraries/vec2.h:57: static inline void vec2_copy(vec2 *dest, const vec2 *src) {
;	---------------------------------
; Function vec2_copy
; ---------------------------------
_vec2_copy:
	add	sp, #-4
	ldhl	sp,	#2
	ld	a, e
	ld	(hl+), a
;Source/Engine/Components/../Libraries/vec2.h:58: dest->x = src->x;
	ld	a, d
	ld	(hl-), a
	inc	sp
	inc	sp
	push	bc
	ld	a, (hl+)
	ld	c, a
	ld	b, (hl)
	pop	de
	push	de
	ld	a, (de)
	ld	l, a
	inc	de
	ld	a, (de)
	ld	h, a
	ld	a, l
	ld	(bc), a
	inc	bc
	ld	a, h
	ld	(bc), a
;Source/Engine/Components/../Libraries/vec2.h:59: dest->y = src->y;
	ldhl	sp,	#2
	ld	a, (hl+)
	ld	c, a
	ld	b, (hl)
	inc	bc
	inc	bc
	pop	hl
	push	hl
	inc	hl
	inc	hl
	ld	a,	(hl+)
	ld	h, (hl)
	ld	(bc), a
	inc	bc
	ld	a, h
	ld	(bc), a
;Source/Engine/Components/../Libraries/vec2.h:60: }
	add	sp, #4
	ret
;Source/Engine/Components/../Libraries/vec2.h:63: static inline bool vec2_equal(const vec2 *a, const vec2 *b) {
;	---------------------------------
; Function vec2_equal
; ---------------------------------
_vec2_equal:
	add	sp, #-8
	ldhl	sp,	#6
	ld	a, e
	ld	(hl+), a
	ld	(hl), d
	ldhl	sp,	#4
	ld	a, c
	ld	(hl+), a
;Source/Engine/Components/../Libraries/vec2.h:64: return a->x == b->x && a->y == b->y;
	ld	a, b
	ld	(hl+), a
	ld	a, (hl+)
	ld	e, a
	ld	a, (hl-)
	dec	hl
	dec	hl
	ld	d, a
	ld	a, (de)
	ld	c, a
	inc	de
	ld	a, (de)
	ld	b, a
	ld	a, (hl+)
	ld	e, a
	ld	d, (hl)
	ld	a, (de)
	ld	l, a
	inc	de
	ld	a, (de)
	ld	h, a
	ld	a, l
	sub	a, c
	jr	NZ, 00103$
	ld	a, h
	sub	a, b
	jr	NZ, 00103$
	ldhl	sp,	#6
	ld	a, (hl+)
	ld	c, a
	ld	b, (hl)
	inc	bc
	inc	bc
	ld	e, c
	ld	d, b
	ld	a, (de)
	ldhl	sp,	#0
	ld	(hl+), a
	inc	de
	ld	a, (de)
	ld	(hl), a
	ldhl	sp,#4
	ld	a, (hl+)
	ld	e, a
	ld	d, (hl)
	ld	hl, #0x0002
	add	hl, de
	push	hl
	ld	a, l
	ldhl	sp,	#4
	ld	(hl), a
	pop	hl
	ld	a, h
	ldhl	sp,	#3
	ld	(hl-), a
	ld	a, (hl+)
	ld	e, a
	ld	a, (hl-)
	ld	d, a
	ld	a, (de)
	ld	(hl+), a
	inc	de
	ld	a, (de)
	ld	(hl), a
	ldhl	sp,	#0
	ld	a, (hl+)
	inc	hl
	sub	a, (hl)
	jr	NZ, 00115$
	dec	hl
	ld	a, (hl+)
	inc	hl
	sub	a, (hl)
	jr	Z, 00104$
00115$:
00103$:
	xor	a, a
	jr	00105$
00104$:
	ld	a, #0x01
00105$:
;Source/Engine/Components/../Libraries/vec2.h:65: }
	add	sp, #8
	ret
;Source/Engine/Components/sprite_component.h:44: static inline uint8_t getSpriteZIndex(uint8_t entityID) {
;	---------------------------------
; Function getSpriteZIndex
; ---------------------------------
_getSpriteZIndex:
	add	sp, #-4
	ldhl	sp,	#2
;Source/Engine/Components/sprite_component.h:45: for (uint8_t i = 0; i < SPRITE_POOL_SIZE; i++) {
	ld	(hl-), a
	xor	a, a
	ld	(hl+), a
	inc	hl
	ld	(hl), #0x00
00105$:
	ldhl	sp,	#3
	ld	a, (hl)
	sub	a, #0x32
	jr	NC, 00103$
;Source/Engine/Components/sprite_component.h:46: if (spriteComponent.entityID[i] == entityID) {
	ld	de, #_spriteComponent
	ld	l, (hl)
	ld	h, #0x00
	add	hl, de
	ld	c, l
	ld	b, h
	ld	a, (bc)
	ld	c, a
	ldhl	sp,	#2
	ld	a, (hl)
	sub	a, c
	jr	NZ, 00106$
;Source/Engine/Components/sprite_component.h:47: return SPRITE_GET_Z(spriteComponent.flags[i]);
	ld	de, #(_spriteComponent + 400)
	ldhl	sp,	#1
	ld	l, (hl)
	ld	h, #0x00
	add	hl, de
	inc	sp
	inc	sp
	ld	e, l
	ld	d, h
	push	de
	ld	a, (de)
	ldhl	sp,	#3
	ld	(hl), a
	and	a, #0x38
	ld	(hl), a
	swap	a
	rlca
	and	a, #0x1f
	ld	(hl), a
	jr	00107$
00106$:
;Source/Engine/Components/sprite_component.h:45: for (uint8_t i = 0; i < SPRITE_POOL_SIZE; i++) {
	ldhl	sp,	#3
	inc	(hl)
	ld	a, (hl-)
	dec	hl
	ld	(hl), a
	jr	00105$
00103$:
;Source/Engine/Components/sprite_component.h:50: return 0;
	xor	a, a
00107$:
;Source/Engine/Components/sprite_component.h:51: }
	add	sp, #4
	ret
;Source/Engine/Components/sprite_component.h:54: static inline bool getSpriteWorldFlag(uint8_t entityID) {
;	---------------------------------
; Function getSpriteWorldFlag
; ---------------------------------
_getSpriteWorldFlag:
	add	sp, #-4
	ldhl	sp,	#2
;Source/Engine/Components/sprite_component.h:55: for (uint8_t i = 0; i < SPRITE_POOL_SIZE; i++) {
	ld	(hl-), a
	xor	a, a
	ld	(hl+), a
	inc	hl
	ld	(hl), #0x00
00105$:
	ldhl	sp,	#3
	ld	a, (hl)
	sub	a, #0x32
	jr	NC, 00103$
;Source/Engine/Components/sprite_component.h:56: if (spriteComponent.entityID[i] == entityID) {
	ld	de, #_spriteComponent
	ld	l, (hl)
	ld	h, #0x00
	add	hl, de
	ld	c, l
	ld	b, h
	ld	a, (bc)
	ld	c, a
	ldhl	sp,	#2
	ld	a, (hl)
	sub	a, c
	jr	NZ, 00106$
;Source/Engine/Components/sprite_component.h:57: return (spriteComponent.flags[i] & SPRITE_FLAG_WORLD) != 0;
	ld	de, #(_spriteComponent + 400)
	ldhl	sp,	#1
	ld	l, (hl)
	ld	h, #0x00
	add	hl, de
	inc	sp
	inc	sp
	ld	e, l
	ld	d, h
	push	de
	ld	a, (de)
	ldhl	sp,	#3
	ld	(hl), a
	and	a, #0x01
	ld	(hl), a
	sub	a, #0x01
	ld	a, #0x00
	rla
	ld	(hl), a
	xor	a, #0x01
	ld	(hl), a
	jr	00107$
00106$:
;Source/Engine/Components/sprite_component.h:55: for (uint8_t i = 0; i < SPRITE_POOL_SIZE; i++) {
	ldhl	sp,	#3
	inc	(hl)
	ld	a, (hl-)
	dec	hl
	ld	(hl), a
	jr	00105$
00103$:
;Source/Engine/Components/sprite_component.h:60: return false;
	xor	a, a
00107$:
;Source/Engine/Components/sprite_component.h:61: }
	add	sp, #4
	ret
;Source/Engine/Components/sprite_component.h:64: static inline bool getSpriteFlipX(uint8_t entityID) {
;	---------------------------------
; Function getSpriteFlipX
; ---------------------------------
_getSpriteFlipX:
	add	sp, #-4
	ldhl	sp,	#2
;Source/Engine/Components/sprite_component.h:65: for (uint8_t i = 0; i < SPRITE_POOL_SIZE; i++) {
	ld	(hl-), a
	xor	a, a
	ld	(hl+), a
	inc	hl
	ld	(hl), #0x00
00105$:
	ldhl	sp,	#3
	ld	a, (hl)
	sub	a, #0x32
	jr	NC, 00103$
;Source/Engine/Components/sprite_component.h:66: if (spriteComponent.entityID[i] == entityID) {
	ld	de, #_spriteComponent
	ld	l, (hl)
	ld	h, #0x00
	add	hl, de
	ld	c, l
	ld	b, h
	ld	a, (bc)
	ld	c, a
	ldhl	sp,	#2
	ld	a, (hl)
	sub	a, c
	jr	NZ, 00106$
;Source/Engine/Components/sprite_component.h:67: return (spriteComponent.flags[i] & SPRITE_FLIP_X) != 0;
	ld	de, #(_spriteComponent + 400)
	ldhl	sp,	#1
	ld	l, (hl)
	ld	h, #0x00
	add	hl, de
	inc	sp
	inc	sp
	ld	e, l
	ld	d, h
	push	de
	ld	a, (de)
	ldhl	sp,	#3
	ld	(hl), a
	and	a, #0x02
	ld	(hl), a
	sub	a, #0x01
	ld	a, #0x00
	rla
	ld	(hl), a
	xor	a, #0x01
	ld	(hl), a
	jr	00107$
00106$:
;Source/Engine/Components/sprite_component.h:65: for (uint8_t i = 0; i < SPRITE_POOL_SIZE; i++) {
	ldhl	sp,	#3
	inc	(hl)
	ld	a, (hl-)
	dec	hl
	ld	(hl), a
	jr	00105$
00103$:
;Source/Engine/Components/sprite_component.h:70: return false;
	xor	a, a
00107$:
;Source/Engine/Components/sprite_component.h:71: }
	add	sp, #4
	ret
;Source/Engine/Components/sprite_component.h:74: static inline bool getSpriteFlipY(uint8_t entityID) {
;	---------------------------------
; Function getSpriteFlipY
; ---------------------------------
_getSpriteFlipY:
	add	sp, #-4
	ldhl	sp,	#2
;Source/Engine/Components/sprite_component.h:75: for (uint8_t i = 0; i < SPRITE_POOL_SIZE; i++) {
	ld	(hl-), a
	xor	a, a
	ld	(hl+), a
	inc	hl
	ld	(hl), #0x00
00105$:
	ldhl	sp,	#3
	ld	a, (hl)
	sub	a, #0x32
	jr	NC, 00103$
;Source/Engine/Components/sprite_component.h:76: if (spriteComponent.entityID[i] == entityID) {
	ld	de, #_spriteComponent
	ld	l, (hl)
	ld	h, #0x00
	add	hl, de
	ld	c, l
	ld	b, h
	ld	a, (bc)
	ld	c, a
	ldhl	sp,	#2
	ld	a, (hl)
	sub	a, c
	jr	NZ, 00106$
;Source/Engine/Components/sprite_component.h:77: return (spriteComponent.flags[i] & SPRITE_FLIP_Y) != 0;
	ld	de, #(_spriteComponent + 400)
	ldhl	sp,	#1
	ld	l, (hl)
	ld	h, #0x00
	add	hl, de
	inc	sp
	inc	sp
	ld	e, l
	ld	d, h
	push	de
	ld	a, (de)
	ldhl	sp,	#3
	ld	(hl), a
	and	a, #0x04
	ld	(hl), a
	sub	a, #0x01
	ld	a, #0x00
	rla
	ld	(hl), a
	xor	a, #0x01
	ld	(hl), a
	jr	00107$
00106$:
;Source/Engine/Components/sprite_component.h:75: for (uint8_t i = 0; i < SPRITE_POOL_SIZE; i++) {
	ldhl	sp,	#3
	inc	(hl)
	ld	a, (hl-)
	dec	hl
	ld	(hl), a
	jr	00105$
00103$:
;Source/Engine/Components/sprite_component.h:80: return false;
	xor	a, a
00107$:
;Source/Engine/Components/sprite_component.h:81: }
	add	sp, #4
	ret
;Source/Engine/Components/sprite_component.h:84: static inline bool getSpriteVisible(uint8_t entityID) {
;	---------------------------------
; Function getSpriteVisible
; ---------------------------------
_getSpriteVisible:
	add	sp, #-4
	ldhl	sp,	#2
;Source/Engine/Components/sprite_component.h:85: for (uint8_t i = 0; i < SPRITE_POOL_SIZE; i++) {
	ld	(hl-), a
	xor	a, a
	ld	(hl+), a
	inc	hl
	ld	(hl), #0x00
00105$:
	ldhl	sp,	#3
	ld	a, (hl)
	sub	a, #0x32
	jr	NC, 00103$
;Source/Engine/Components/sprite_component.h:86: if (spriteComponent.entityID[i] == entityID) {
	ld	de, #_spriteComponent
	ld	l, (hl)
	ld	h, #0x00
	add	hl, de
	ld	c, l
	ld	b, h
	ld	a, (bc)
	ld	c, a
	ldhl	sp,	#2
	ld	a, (hl)
	sub	a, c
	jr	NZ, 00106$
;Source/Engine/Components/sprite_component.h:87: return (spriteComponent.flags[i] & SPRITE_VISIBLE) != 0;
	ld	de, #(_spriteComponent + 400)
	ldhl	sp,	#1
	ld	l, (hl)
	ld	h, #0x00
	add	hl, de
	inc	sp
	inc	sp
	ld	e, l
	ld	d, h
	push	de
	ld	a, (de)
	ldhl	sp,	#3
	ld	(hl), a
	and	a, #0x40
	ld	(hl), a
	sub	a, #0x01
	ld	a, #0x00
	rla
	ld	(hl), a
	xor	a, #0x01
	ld	(hl), a
	jr	00107$
00106$:
;Source/Engine/Components/sprite_component.h:85: for (uint8_t i = 0; i < SPRITE_POOL_SIZE; i++) {
	ldhl	sp,	#3
	inc	(hl)
	ld	a, (hl-)
	dec	hl
	ld	(hl), a
	jr	00105$
00103$:
;Source/Engine/Components/sprite_component.h:90: return false;
	xor	a, a
00107$:
;Source/Engine/Components/sprite_component.h:91: }
	add	sp, #4
	ret
;Source/Engine/Components/sprite_component.h:94: static inline void setSpriteZIndex(uint8_t entityID, uint8_t z) {
;	---------------------------------
; Function setSpriteZIndex
; ---------------------------------
_setSpriteZIndex:
	add	sp, #-7
	ldhl	sp,	#6
	ld	(hl-), a
;Source/Engine/Components/sprite_component.h:95: for (uint8_t i = 0; i < SPRITE_POOL_SIZE; i++) {
	ld	a, e
	ld	(hl-), a
	dec	hl
	xor	a, a
	ld	(hl+), a
	ld	(hl), a
00105$:
	ldhl	sp,	#4
	ld	a, (hl)
	sub	a, #0x32
	jr	NC, 00107$
;Source/Engine/Components/sprite_component.h:96: if (spriteComponent.entityID[i] == entityID) {
	ld	de, #_spriteComponent
	ld	l, (hl)
	ld	h, #0x00
	add	hl, de
	ld	c, l
	ld	b, h
	ld	a, (bc)
	ld	c, a
	ldhl	sp,	#6
	ld	a, (hl)
	sub	a, c
	jr	NZ, 00106$
;Source/Engine/Components/sprite_component.h:97: spriteComponent.flags[i] = SPRITE_SET_Z(spriteComponent.flags[i], z);
	ld	de, #(_spriteComponent + 400)
	ldhl	sp,	#3
	ld	l, (hl)
	ld	h, #0x00
	add	hl, de
	inc	sp
	inc	sp
	ld	e, l
	ld	d, h
	push	de
	ld	a, (de)
	ldhl	sp,	#4
	ld	(hl-), a
	dec	hl
	and	a, #0xc7
	ld	(hl), a
	ldhl	sp,	#5
	ld	a, (hl-)
	add	a, a
	add	a, a
	add	a, a
	and	a, #0x38
	ld	(hl), a
	ld	a, (hl-)
	dec	hl
	or	a, (hl)
	inc	hl
	inc	hl
	ld	(hl), a
	pop	de
	push	de
	ld	a, (hl)
	ld	(de), a
;Source/Engine/Components/sprite_component.h:98: return;
	jr	00107$
00106$:
;Source/Engine/Components/sprite_component.h:95: for (uint8_t i = 0; i < SPRITE_POOL_SIZE; i++) {
	ldhl	sp,	#4
	inc	(hl)
	ld	a, (hl-)
	ld	(hl), a
	jr	00105$
00107$:
;Source/Engine/Components/sprite_component.h:101: }
	add	sp, #7
	ret
;Source/Engine/Components/sprite_component.h:104: static inline void setSpriteWorldFlag(uint8_t entityID, bool isWorld) {
;	---------------------------------
; Function setSpriteWorldFlag
; ---------------------------------
_setSpriteWorldFlag:
	dec	sp
	ldhl	sp,	#0
	ld	(hl), a
	ld	c, e
;Source/Engine/Components/sprite_component.h:105: for (uint8_t i = 0; i < SPRITE_POOL_SIZE; i++) {
	ld	b, #0x00
	ld	e, b
00108$:
	ld	a, e
	sub	a, #0x32
	jr	NC, 00110$
;Source/Engine/Components/sprite_component.h:106: if (spriteComponent.entityID[i] == entityID) {
	ld	hl, #_spriteComponent
	ld	d, #0x00
	add	hl, de
	ld	d, (hl)
	ldhl	sp,	#0
	ld	a, (hl)
	sub	a, d
	jr	NZ, 00109$
;Source/Engine/Components/sprite_component.h:108: spriteComponent.flags[i] |= SPRITE_FLAG_WORLD;
	ld	a, #<((_spriteComponent + 400))
	add	a, b
	ld	e, a
	ld	a, #>((_spriteComponent + 400))
	adc	a, #0x00
	ld	d, a
	ld	a, (de)
;Source/Engine/Components/sprite_component.h:107: if (isWorld) {
	bit	0, c
	jr	Z, 00102$
;Source/Engine/Components/sprite_component.h:108: spriteComponent.flags[i] |= SPRITE_FLAG_WORLD;
	set	0, a
	ld	(de), a
	jr	00110$
00102$:
;Source/Engine/Components/sprite_component.h:110: spriteComponent.flags[i] &= ~SPRITE_FLAG_WORLD;
	res	0, a
	ld	(de), a
;Source/Engine/Components/sprite_component.h:112: return;
	jr	00110$
00109$:
;Source/Engine/Components/sprite_component.h:105: for (uint8_t i = 0; i < SPRITE_POOL_SIZE; i++) {
	inc	e
	ld	b, e
	jr	00108$
00110$:
;Source/Engine/Components/sprite_component.h:115: }
	inc	sp
	ret
;Source/Engine/Components/sprite_component.h:118: static inline void setSpriteFlipX(uint8_t entityID, bool flip) {
;	---------------------------------
; Function setSpriteFlipX
; ---------------------------------
_setSpriteFlipX:
	dec	sp
	ldhl	sp,	#0
	ld	(hl), a
	ld	c, e
;Source/Engine/Components/sprite_component.h:119: for (uint8_t i = 0; i < SPRITE_POOL_SIZE; i++) {
	ld	b, #0x00
	ld	e, b
00108$:
	ld	a, e
	sub	a, #0x32
	jr	NC, 00110$
;Source/Engine/Components/sprite_component.h:120: if (spriteComponent.entityID[i] == entityID) {
	ld	hl, #_spriteComponent
	ld	d, #0x00
	add	hl, de
	ld	d, (hl)
	ldhl	sp,	#0
	ld	a, (hl)
	sub	a, d
	jr	NZ, 00109$
;Source/Engine/Components/sprite_component.h:122: spriteComponent.flags[i] |= SPRITE_FLIP_X;
	ld	a, #<((_spriteComponent + 400))
	add	a, b
	ld	e, a
	ld	a, #>((_spriteComponent + 400))
	adc	a, #0x00
	ld	d, a
	ld	a, (de)
;Source/Engine/Components/sprite_component.h:121: if (flip) {
	bit	0, c
	jr	Z, 00102$
;Source/Engine/Components/sprite_component.h:122: spriteComponent.flags[i] |= SPRITE_FLIP_X;
	set	1, a
	ld	(de), a
	jr	00110$
00102$:
;Source/Engine/Components/sprite_component.h:124: spriteComponent.flags[i] &= ~SPRITE_FLIP_X;
	res	1, a
	ld	(de), a
;Source/Engine/Components/sprite_component.h:126: return;
	jr	00110$
00109$:
;Source/Engine/Components/sprite_component.h:119: for (uint8_t i = 0; i < SPRITE_POOL_SIZE; i++) {
	inc	e
	ld	b, e
	jr	00108$
00110$:
;Source/Engine/Components/sprite_component.h:129: }
	inc	sp
	ret
;Source/Engine/Components/sprite_component.h:132: static inline void setSpriteFlipY(uint8_t entityID, bool flip) {
;	---------------------------------
; Function setSpriteFlipY
; ---------------------------------
_setSpriteFlipY:
	dec	sp
	ldhl	sp,	#0
	ld	(hl), a
	ld	c, e
;Source/Engine/Components/sprite_component.h:133: for (uint8_t i = 0; i < SPRITE_POOL_SIZE; i++) {
	ld	b, #0x00
	ld	e, b
00108$:
	ld	a, e
	sub	a, #0x32
	jr	NC, 00110$
;Source/Engine/Components/sprite_component.h:134: if (spriteComponent.entityID[i] == entityID) {
	ld	hl, #_spriteComponent
	ld	d, #0x00
	add	hl, de
	ld	d, (hl)
	ldhl	sp,	#0
	ld	a, (hl)
	sub	a, d
	jr	NZ, 00109$
;Source/Engine/Components/sprite_component.h:136: spriteComponent.flags[i] |= SPRITE_FLIP_Y;
	ld	a, #<((_spriteComponent + 400))
	add	a, b
	ld	e, a
	ld	a, #>((_spriteComponent + 400))
	adc	a, #0x00
	ld	d, a
	ld	a, (de)
;Source/Engine/Components/sprite_component.h:135: if (flip) {
	bit	0, c
	jr	Z, 00102$
;Source/Engine/Components/sprite_component.h:136: spriteComponent.flags[i] |= SPRITE_FLIP_Y;
	set	2, a
	ld	(de), a
	jr	00110$
00102$:
;Source/Engine/Components/sprite_component.h:138: spriteComponent.flags[i] &= ~SPRITE_FLIP_Y;
	res	2, a
	ld	(de), a
;Source/Engine/Components/sprite_component.h:140: return;
	jr	00110$
00109$:
;Source/Engine/Components/sprite_component.h:133: for (uint8_t i = 0; i < SPRITE_POOL_SIZE; i++) {
	inc	e
	ld	b, e
	jr	00108$
00110$:
;Source/Engine/Components/sprite_component.h:143: }
	inc	sp
	ret
;Source/Engine/Components/sprite_component.h:146: static inline void setSpriteVisible(uint8_t entityID, bool visible) {
;	---------------------------------
; Function setSpriteVisible
; ---------------------------------
_setSpriteVisible:
	dec	sp
	ldhl	sp,	#0
	ld	(hl), a
	ld	c, e
;Source/Engine/Components/sprite_component.h:147: for (uint8_t i = 0; i < SPRITE_POOL_SIZE; i++) {
	ld	b, #0x00
	ld	e, b
00108$:
	ld	a, e
	sub	a, #0x32
	jr	NC, 00110$
;Source/Engine/Components/sprite_component.h:148: if (spriteComponent.entityID[i] == entityID) {
	ld	hl, #_spriteComponent
	ld	d, #0x00
	add	hl, de
	ld	d, (hl)
	ldhl	sp,	#0
	ld	a, (hl)
	sub	a, d
	jr	NZ, 00109$
;Source/Engine/Components/sprite_component.h:150: spriteComponent.flags[i] |= SPRITE_VISIBLE;
	ld	a, #<((_spriteComponent + 400))
	add	a, b
	ld	e, a
	ld	a, #>((_spriteComponent + 400))
	adc	a, #0x00
	ld	d, a
	ld	a, (de)
;Source/Engine/Components/sprite_component.h:149: if (visible) {
	bit	0, c
	jr	Z, 00102$
;Source/Engine/Components/sprite_component.h:150: spriteComponent.flags[i] |= SPRITE_VISIBLE;
	set	6, a
	ld	(de), a
	jr	00110$
00102$:
;Source/Engine/Components/sprite_component.h:152: spriteComponent.flags[i] &= ~SPRITE_VISIBLE;
	res	6, a
	ld	(de), a
;Source/Engine/Components/sprite_component.h:154: return;
	jr	00110$
00109$:
;Source/Engine/Components/sprite_component.h:147: for (uint8_t i = 0; i < SPRITE_POOL_SIZE; i++) {
	inc	e
	ld	b, e
	jr	00108$
00110$:
;Source/Engine/Components/sprite_component.h:157: }
	inc	sp
	ret
	.area _CODE
	.area _INITIALIZER
__xinit__spriteComponent:
	.db #0x00	; 0
	.db 0x00
	.db 0x00
	.db 0x00
	.db 0x00
	.db 0x00
	.db 0x00
	.db 0x00
	.db 0x00
	.db 0x00
	.db 0x00
	.db 0x00
	.db 0x00
	.db 0x00
	.db 0x00
	.db 0x00
	.db 0x00
	.db 0x00
	.db 0x00
	.db 0x00
	.db 0x00
	.db 0x00
	.db 0x00
	.db 0x00
	.db 0x00
	.db 0x00
	.db 0x00
	.db 0x00
	.db 0x00
	.db 0x00
	.db 0x00
	.db 0x00
	.db 0x00
	.db 0x00
	.db 0x00
	.db 0x00
	.db 0x00
	.db 0x00
	.db 0x00
	.db 0x00
	.db 0x00
	.db 0x00
	.db 0x00
	.db 0x00
	.db 0x00
	.db 0x00
	.db 0x00
	.db 0x00
	.db 0x00
	.db 0x00
	.dw #0x0000
	.db 0x00
	.db 0x00
	.db 0x00
	.db 0x00
	.db 0x00
	.db 0x00
	.db 0x00
	.db 0x00
	.db 0x00
	.db 0x00
	.db 0x00
	.db 0x00
	.db 0x00
	.db 0x00
	.db 0x00
	.db 0x00
	.db 0x00
	.db 0x00
	.db 0x00
	.db 0x00
	.db 0x00
	.db 0x00
	.db 0x00
	.db 0x00
	.db 0x00
	.db 0x00
	.db 0x00
	.db 0x00
	.db 0x00
	.db 0x00
	.db 0x00
	.db 0x00
	.db 0x00
	.db 0x00
	.db 0x00
	.db 0x00
	.db 0x00
	.db 0x00
	.db 0x00
	.db 0x00
	.db 0x00
	.db 0x00
	.db 0x00
	.db 0x00
	.db 0x00
	.db 0x00
	.db 0x00
	.db 0x00
	.db 0x00
	.db 0x00
	.db 0x00
	.db 0x00
	.db 0x00
	.db 0x00
	.db 0x00
	.db 0x00
	.db 0x00
	.db 0x00
	.db 0x00
	.db 0x00
	.db 0x00
	.db 0x00
	.db 0x00
	.db 0x00
	.db 0x00
	.db 0x00
	.db 0x00
	.db 0x00
	.db 0x00
	.db 0x00
	.db 0x00
	.db 0x00
	.db 0x00
	.db 0x00
	.db 0x00
	.db 0x00
	.db 0x00
	.db 0x00
	.db 0x00
	.db 0x00
	.db 0x00
	.db 0x00
	.db 0x00
	.db 0x00
	.db 0x00
	.db 0x00
	.db 0x00
	.db 0x00
	.db 0x00
	.db 0x00
	.db 0x00
	.db 0x00
	.db 0x00
	.db 0x00
	.db 0x00
	.db 0x00
	.db 0x00
	.db 0x00
	.db #0x00	; 0
	.db 0x00
	.db 0x00
	.db 0x00
	.db 0x00
	.db 0x00
	.db 0x00
	.db 0x00
	.db 0x00
	.db 0x00
	.db 0x00
	.db 0x00
	.db 0x00
	.db 0x00
	.db 0x00
	.db 0x00
	.db 0x00
	.db 0x00
	.db 0x00
	.db 0x00
	.db 0x00
	.db 0x00
	.db 0x00
	.db 0x00
	.db 0x00
	.db 0x00
	.db 0x00
	.db 0x00
	.db 0x00
	.db 0x00
	.db 0x00
	.db 0x00
	.db 0x00
	.db 0x00
	.db 0x00
	.db 0x00
	.db 0x00
	.db 0x00
	.db 0x00
	.db 0x00
	.db 0x00
	.db 0x00
	.db 0x00
	.db 0x00
	.db 0x00
	.db 0x00
	.db 0x00
	.db 0x00
	.db 0x00
	.db 0x00
	.db #0x00	; 0
	.db 0x00
	.db 0x00
	.db 0x00
	.db 0x00
	.db 0x00
	.db 0x00
	.db 0x00
	.db 0x00
	.db 0x00
	.db 0x00
	.db 0x00
	.db 0x00
	.db 0x00
	.db 0x00
	.db 0x00
	.db 0x00
	.db 0x00
	.db 0x00
	.db 0x00
	.db 0x00
	.db 0x00
	.db 0x00
	.db 0x00
	.db 0x00
	.db 0x00
	.db 0x00
	.db 0x00
	.db 0x00
	.db 0x00
	.db 0x00
	.db 0x00
	.db 0x00
	.db 0x00
	.db 0x00
	.db 0x00
	.db 0x00
	.db 0x00
	.db 0x00
	.db 0x00
	.db 0x00
	.db 0x00
	.db 0x00
	.db 0x00
	.db 0x00
	.db 0x00
	.db 0x00
	.db 0x00
	.db 0x00
	.db 0x00
	.db #0x00	; 0
	.db 0x00
	.db 0x00
	.db 0x00
	.db 0x00
	.db 0x00
	.db 0x00
	.db 0x00
	.db 0x00
	.db 0x00
	.db 0x00
	.db 0x00
	.db 0x00
	.db 0x00
	.db 0x00
	.db 0x00
	.db 0x00
	.db 0x00
	.db 0x00
	.db 0x00
	.db 0x00
	.db 0x00
	.db 0x00
	.db 0x00
	.db 0x00
	.db 0x00
	.db 0x00
	.db 0x00
	.db 0x00
	.db 0x00
	.db 0x00
	.db 0x00
	.db 0x00
	.db 0x00
	.db 0x00
	.db 0x00
	.db 0x00
	.db 0x00
	.db 0x00
	.db 0x00
	.db 0x00
	.db 0x00
	.db 0x00
	.db 0x00
	.db 0x00
	.db 0x00
	.db 0x00
	.db 0x00
	.db 0x00
	.db 0x00
	.db #0x00	;  0
	.db #0x00	;  0
	.db 0x00
	.db 0x00
	.db 0x00
	.db 0x00
	.db 0x00
	.db 0x00
	.db 0x00
	.db 0x00
	.db 0x00
	.db 0x00
	.db 0x00
	.db 0x00
	.db 0x00
	.db 0x00
	.db 0x00
	.db 0x00
	.db 0x00
	.db 0x00
	.db 0x00
	.db 0x00
	.db 0x00
	.db 0x00
	.db 0x00
	.db 0x00
	.db 0x00
	.db 0x00
	.db 0x00
	.db 0x00
	.db 0x00
	.db 0x00
	.db 0x00
	.db 0x00
	.db 0x00
	.db 0x00
	.db 0x00
	.db 0x00
	.db 0x00
	.db 0x00
	.db 0x00
	.db 0x00
	.db 0x00
	.db 0x00
	.db 0x00
	.db 0x00
	.db 0x00
	.db 0x00
	.db 0x00
	.db 0x00
	.db 0x00
	.db 0x00
	.db 0x00
	.db 0x00
	.db 0x00
	.db 0x00
	.db 0x00
	.db 0x00
	.db 0x00
	.db 0x00
	.db 0x00
	.db 0x00
	.db 0x00
	.db 0x00
	.db 0x00
	.db 0x00
	.db 0x00
	.db 0x00
	.db 0x00
	.db 0x00
	.db 0x00
	.db 0x00
	.db 0x00
	.db 0x00
	.db 0x00
	.db 0x00
	.db 0x00
	.db 0x00
	.db 0x00
	.db 0x00
	.db 0x00
	.db 0x00
	.db 0x00
	.db 0x00
	.db 0x00
	.db 0x00
	.db 0x00
	.db 0x00
	.db 0x00
	.db 0x00
	.db 0x00
	.db 0x00
	.db 0x00
	.db 0x00
	.db 0x00
	.db 0x00
	.db 0x00
	.db 0x00
	.db 0x00
	.db 0x00
	.db #0x00	; 0
	.db 0x00
	.db 0x00
	.db 0x00
	.db 0x00
	.db 0x00
	.db 0x00
	.db 0x00
	.db 0x00
	.db 0x00
	.db 0x00
	.db 0x00
	.db 0x00
	.db 0x00
	.db 0x00
	.db 0x00
	.db 0x00
	.db 0x00
	.db 0x00
	.db 0x00
	.db 0x00
	.db 0x00
	.db 0x00
	.db 0x00
	.db 0x00
	.db 0x00
	.db 0x00
	.db 0x00
	.db 0x00
	.db 0x00
	.db 0x00
	.db 0x00
	.db 0x00
	.db 0x00
	.db 0x00
	.db 0x00
	.db 0x00
	.db 0x00
	.db 0x00
	.db 0x00
	.db 0x00
	.db 0x00
	.db 0x00
	.db 0x00
	.db 0x00
	.db 0x00
	.db 0x00
	.db 0x00
	.db 0x00
	.db 0x00
	.db #0x00	; 0
	.db 0x00
	.db 0x00
	.db 0x00
	.db 0x00
	.db 0x00
	.db 0x00
	.db 0x00
	.db 0x00
	.db 0x00
	.db 0x00
	.db 0x00
	.db 0x00
	.db 0x00
	.db 0x00
	.db 0x00
	.db 0x00
	.db 0x00
	.db 0x00
	.db 0x00
	.db 0x00
	.db 0x00
	.db 0x00
	.db 0x00
	.db 0x00
	.db 0x00
	.db 0x00
	.db 0x00
	.db 0x00
	.db 0x00
	.db 0x00
	.db 0x00
	.db 0x00
	.db 0x00
	.db 0x00
	.db 0x00
	.db 0x00
	.db 0x00
	.db 0x00
	.db 0x00
	.db 0x00
	.db 0x00
	.db 0x00
	.db 0x00
	.db 0x00
	.db 0x00
	.db 0x00
	.db 0x00
	.db 0x00
	.db 0x00
__xinit__spriteIDByZIndex:
	.db #0x00	; 0
	.db 0x00
	.db 0x00
	.db 0x00
	.db 0x00
	.db 0x00
	.db 0x00
	.db 0x00
	.db 0x00
	.db 0x00
	.db 0x00
	.db 0x00
	.db 0x00
	.db 0x00
	.db 0x00
	.db 0x00
	.db 0x00
	.db 0x00
	.db 0x00
	.db 0x00
	.db 0x00
	.db 0x00
	.db 0x00
	.db 0x00
	.db 0x00
	.db 0x00
	.db 0x00
	.db 0x00
	.db 0x00
	.db 0x00
	.db 0x00
	.db 0x00
	.db 0x00
	.db 0x00
	.db 0x00
	.db 0x00
	.db 0x00
	.db 0x00
	.db 0x00
	.db 0x00
	.db 0x00
	.db 0x00
	.db 0x00
	.db 0x00
	.db 0x00
	.db 0x00
	.db 0x00
	.db 0x00
	.db 0x00
	.db 0x00
	.area _CABS (ABS)
