                                      1 ;--------------------------------------------------------
                                      2 ; File Created by SDCC : free open source ISO C Compiler
                                      3 ; Version 4.5.1 #15267 (Linux)
                                      4 ;--------------------------------------------------------
                                      5 	.module render_sprite_system
                                      6 	
                                      7 ;--------------------------------------------------------
                                      8 ; Public variables in this module
                                      9 ;--------------------------------------------------------
                                     10 	.globl _getEntityById
                                     11 	.globl _EntityHasComponent
                                     12 	.globl _set_sprite_data
                                     13 	.globl _camera
                                     14 	.globl _RenderSprites
                                     15 	.globl _clearZIndexArray
                                     16 	.globl _sortEntitiesByZIndex
                                     17 ;--------------------------------------------------------
                                     18 ; special function registers
                                     19 ;--------------------------------------------------------
                                     20 ;--------------------------------------------------------
                                     21 ; ram data
                                     22 ;--------------------------------------------------------
                                     23 	.area _DATA
                                     24 ;--------------------------------------------------------
                                     25 ; ram data
                                     26 ;--------------------------------------------------------
                                     27 	.area _INITIALIZED
    00000000                         28 _camera::
    00000000                         29 	.ds 2
                                     30 ;--------------------------------------------------------
                                     31 ; absolute external ram data
                                     32 ;--------------------------------------------------------
                                     33 	.area _DABS (ABS)
                                     34 ;--------------------------------------------------------
                                     35 ; global & static initialisations
                                     36 ;--------------------------------------------------------
                                     37 	.area _HOME
                                     38 	.area _GSINIT
                                     39 	.area _GSFINAL
                                     40 	.area _GSINIT
                                     41 ;--------------------------------------------------------
                                     42 ; Home
                                     43 ;--------------------------------------------------------
                                     44 	.area _HOME
                                     45 	.area _HOME
                                     46 ;--------------------------------------------------------
                                     47 ; code
                                     48 ;--------------------------------------------------------
                                     49 	.area _CODE
                                     50 ;Source/Engine/Systems/../Components/../Libraries/vec2.h:32: static inline void vec2_set(vec2 *v, int x, int y) {
                                     51 ;	---------------------------------
                                     52 ; Function vec2_set
                                     53 ; ---------------------------------
    00000000                         54 _vec2_set:
    00000000 69               [ 4]   55 	ld	l, c
    00000001 60               [ 4]   56 	ld	h, b
                                     57 ;Source/Engine/Systems/../Components/../Libraries/vec2.h:33: v->x = F12(x);
    00000002 4B               [ 4]   58 	ld	c, e
    00000003 42               [ 4]   59 	ld	b, d
    00000004 29               [ 8]   60 	add	hl, hl
    00000005 29               [ 8]   61 	add	hl, hl
    00000006 29               [ 8]   62 	add	hl, hl
    00000007 29               [ 8]   63 	add	hl, hl
    00000008 7D               [ 4]   64 	ld	a, l
    00000009 02               [ 8]   65 	ld	(bc), a
    0000000A 03               [ 8]   66 	inc	bc
    0000000B 7C               [ 4]   67 	ld	a, h
    0000000C 02               [ 8]   68 	ld	(bc), a
                                     69 ;Source/Engine/Systems/../Components/../Libraries/vec2.h:34: v->y = F12(y);
    0000000D 13               [ 8]   70 	inc	de
    0000000E 13               [ 8]   71 	inc	de
    0000000F F8 02            [12]   72 	ldhl	sp,	#2
    00000011 2A               [ 8]   73 	ld	a, (hl+)
    00000012 46               [ 8]   74 	ld	b, (hl)
    00000013 87               [ 4]   75 	add	a, a
    00000014 CB 10            [ 8]   76 	rl	b
    00000016 87               [ 4]   77 	add	a, a
    00000017 CB 10            [ 8]   78 	rl	b
    00000019 87               [ 4]   79 	add	a, a
    0000001A CB 10            [ 8]   80 	rl	b
    0000001C 87               [ 4]   81 	add	a, a
    0000001D CB 10            [ 8]   82 	rl	b
    0000001F 4F               [ 4]   83 	ld	c, a
    00000020 12               [ 8]   84 	ld	(de), a
    00000021 13               [ 8]   85 	inc	de
    00000022 78               [ 4]   86 	ld	a, b
    00000023 12               [ 8]   87 	ld	(de), a
                                     88 ;Source/Engine/Systems/../Components/../Libraries/vec2.h:35: }
    00000024 E1               [12]   89 	pop	hl
    00000025 F1               [12]   90 	pop	af
    00000026 E9               [ 4]   91 	jp	(hl)
                                     92 ;Source/Engine/Systems/../Components/../Libraries/vec2.h:38: static inline void vec2_add(vec2 *a, const vec2 *b) {
                                     93 ;	---------------------------------
                                     94 ; Function vec2_add
                                     95 ; ---------------------------------
    00000027                         96 _vec2_add:
    00000027 E8 F8            [16]   97 	add	sp, #-8
    00000029 F8 06            [12]   98 	ldhl	sp,	#6
    0000002B 7B               [ 4]   99 	ld	a, e
    0000002C 22               [ 8]  100 	ld	(hl+), a
    0000002D 72               [ 8]  101 	ld	(hl), d
    0000002E F8 04            [12]  102 	ldhl	sp,	#4
    00000030 79               [ 4]  103 	ld	a, c
    00000031 22               [ 8]  104 	ld	(hl+), a
                                    105 ;Source/Engine/Systems/../Components/../Libraries/vec2.h:39: a->x += b->x;
    00000032 78               [ 4]  106 	ld	a, b
    00000033 22               [ 8]  107 	ld	(hl+), a
    00000034 7E               [ 8]  108 	ld	a, (hl)
    00000035 F8 02            [12]  109 	ldhl	sp,	#2
    00000037 77               [ 8]  110 	ld	(hl), a
    00000038 F8 07            [12]  111 	ldhl	sp,	#7
    0000003A 7E               [ 8]  112 	ld	a, (hl)
    0000003B F8 03            [12]  113 	ldhl	sp,	#3
    0000003D 32               [ 8]  114 	ld	(hl-), a
    0000003E 2A               [ 8]  115 	ld	a, (hl+)
    0000003F 5F               [ 4]  116 	ld	e, a
    00000040 2A               [ 8]  117 	ld	a, (hl+)
    00000041 57               [ 4]  118 	ld	d, a
    00000042 1A               [ 8]  119 	ld	a, (de)
    00000043 4F               [ 4]  120 	ld	c, a
    00000044 13               [ 8]  121 	inc	de
    00000045 1A               [ 8]  122 	ld	a, (de)
    00000046 47               [ 4]  123 	ld	b, a
    00000047 2A               [ 8]  124 	ld	a, (hl+)
    00000048 5F               [ 4]  125 	ld	e, a
    00000049 56               [ 8]  126 	ld	d, (hl)
    0000004A 1A               [ 8]  127 	ld	a, (de)
    0000004B 6F               [ 4]  128 	ld	l, a
    0000004C 13               [ 8]  129 	inc	de
    0000004D 1A               [ 8]  130 	ld	a, (de)
    0000004E 67               [ 4]  131 	ld	h, a
    0000004F 09               [ 8]  132 	add	hl, bc
    00000050 4D               [ 4]  133 	ld	c, l
    00000051 44               [ 4]  134 	ld	b, h
    00000052 F8 02            [12]  135 	ldhl	sp,	#2
    00000054 2A               [ 8]  136 	ld	a, (hl+)
    00000055 66               [ 8]  137 	ld	h, (hl)
    00000056 6F               [ 4]  138 	ld	l, a
    00000057 79               [ 4]  139 	ld	a, c
    00000058 22               [ 8]  140 	ld	(hl+), a
    00000059 70               [ 8]  141 	ld	(hl), b
                                    142 ;Source/Engine/Systems/../Components/../Libraries/vec2.h:40: a->y += b->y;
    0000005A F8 06            [12]  143 	ldhl	sp,	#6
    0000005C 2A               [ 8]  144 	ld	a, (hl+)
    0000005D 4F               [ 4]  145 	ld	c, a
    0000005E 46               [ 8]  146 	ld	b, (hl)
    0000005F 03               [ 8]  147 	inc	bc
    00000060 03               [ 8]  148 	inc	bc
    00000061 59               [ 4]  149 	ld	e, c
    00000062 50               [ 4]  150 	ld	d, b
    00000063 1A               [ 8]  151 	ld	a, (de)
    00000064 F8 00            [12]  152 	ldhl	sp,	#0
    00000066 22               [ 8]  153 	ld	(hl+), a
    00000067 13               [ 8]  154 	inc	de
    00000068 1A               [ 8]  155 	ld	a, (de)
    00000069 77               [ 8]  156 	ld	(hl), a
    0000006A F8 04            [12]  157 	ldhl	sp,	#4
    0000006C 2A               [ 8]  158 	ld	a, (hl+)
    0000006D 66               [ 8]  159 	ld	h, (hl)
    0000006E 6F               [ 4]  160 	ld	l, a
    0000006F 23               [ 8]  161 	inc	hl
    00000070 23               [ 8]  162 	inc	hl
    00000071 5D               [ 4]  163 	ld	e, l
    00000072 54               [ 4]  164 	ld	d, h
    00000073 1A               [ 8]  165 	ld	a, (de)
    00000074 F8 02            [12]  166 	ldhl	sp,	#2
    00000076 22               [ 8]  167 	ld	(hl+), a
    00000077 13               [ 8]  168 	inc	de
    00000078 1A               [ 8]  169 	ld	a, (de)
    00000079 77               [ 8]  170 	ld	(hl), a
    0000007A F8 02            [12]  171 	ldhl	sp,#2
    0000007C 2A               [ 8]  172 	ld	a, (hl+)
    0000007D 5F               [ 4]  173 	ld	e, a
    0000007E 56               [ 8]  174 	ld	d, (hl)
    0000007F E1               [12]  175 	pop	hl
    00000080 E5               [16]  176 	push	hl
    00000081 19               [ 8]  177 	add	hl, de
    00000082 5D               [ 4]  178 	ld	e, l
    00000083 54               [ 4]  179 	ld	d, h
    00000084 7B               [ 4]  180 	ld	a, e
    00000085 02               [ 8]  181 	ld	(bc), a
    00000086 03               [ 8]  182 	inc	bc
    00000087 7A               [ 4]  183 	ld	a, d
    00000088 02               [ 8]  184 	ld	(bc), a
                                    185 ;Source/Engine/Systems/../Components/../Libraries/vec2.h:41: }
    00000089 E8 08            [16]  186 	add	sp, #8
    0000008B C9               [16]  187 	ret
                                    188 ;Source/Engine/Systems/../Components/../Libraries/vec2.h:44: static inline void vec2_sub(vec2 *a, const vec2 *b) {
                                    189 ;	---------------------------------
                                    190 ; Function vec2_sub
                                    191 ; ---------------------------------
    0000008C                        192 _vec2_sub:
    0000008C E8 FA            [16]  193 	add	sp, #-6
    0000008E F8 04            [12]  194 	ldhl	sp,	#4
    00000090 7B               [ 4]  195 	ld	a, e
    00000091 22               [ 8]  196 	ld	(hl+), a
    00000092 72               [ 8]  197 	ld	(hl), d
    00000093 F8 02            [12]  198 	ldhl	sp,	#2
    00000095 79               [ 4]  199 	ld	a, c
    00000096 22               [ 8]  200 	ld	(hl+), a
                                    201 ;Source/Engine/Systems/../Components/../Libraries/vec2.h:45: a->x -= b->x;
    00000097 78               [ 4]  202 	ld	a, b
    00000098 22               [ 8]  203 	ld	(hl+), a
    00000099 7E               [ 8]  204 	ld	a, (hl)
    0000009A F8 00            [12]  205 	ldhl	sp,	#0
    0000009C 77               [ 8]  206 	ld	(hl), a
    0000009D F8 05            [12]  207 	ldhl	sp,	#5
    0000009F 7E               [ 8]  208 	ld	a, (hl)
    000000A0 F8 01            [12]  209 	ldhl	sp,	#1
    000000A2 22               [ 8]  210 	ld	(hl+), a
    000000A3 D1               [12]  211 	pop	de
    000000A4 D5               [16]  212 	push	de
    000000A5 1A               [ 8]  213 	ld	a, (de)
    000000A6 4F               [ 4]  214 	ld	c, a
    000000A7 13               [ 8]  215 	inc	de
    000000A8 1A               [ 8]  216 	ld	a, (de)
    000000A9 47               [ 4]  217 	ld	b, a
    000000AA 2A               [ 8]  218 	ld	a, (hl+)
    000000AB 5F               [ 4]  219 	ld	e, a
    000000AC 56               [ 8]  220 	ld	d, (hl)
    000000AD 1A               [ 8]  221 	ld	a, (de)
    000000AE 6F               [ 4]  222 	ld	l, a
    000000AF 13               [ 8]  223 	inc	de
    000000B0 1A               [ 8]  224 	ld	a, (de)
    000000B1 67               [ 4]  225 	ld	h, a
    000000B2 79               [ 4]  226 	ld	a, c
    000000B3 95               [ 4]  227 	sub	a, l
    000000B4 4F               [ 4]  228 	ld	c, a
    000000B5 78               [ 4]  229 	ld	a, b
    000000B6 9C               [ 4]  230 	sbc	a, h
    000000B7 47               [ 4]  231 	ld	b, a
    000000B8 E1               [12]  232 	pop	hl
    000000B9 E5               [16]  233 	push	hl
    000000BA 79               [ 4]  234 	ld	a, c
    000000BB 22               [ 8]  235 	ld	(hl+), a
    000000BC 70               [ 8]  236 	ld	(hl), b
                                    237 ;Source/Engine/Systems/../Components/../Libraries/vec2.h:46: a->y -= b->y;
    000000BD F8 04            [12]  238 	ldhl	sp,#4
    000000BF 2A               [ 8]  239 	ld	a, (hl+)
    000000C0 5F               [ 4]  240 	ld	e, a
    000000C1 56               [ 8]  241 	ld	d, (hl)
    000000C2 21 02 00         [12]  242 	ld	hl, #0x0002
    000000C5 19               [ 8]  243 	add	hl, de
    000000C6 33               [ 8]  244 	inc	sp
    000000C7 33               [ 8]  245 	inc	sp
    000000C8 5D               [ 4]  246 	ld	e, l
    000000C9 54               [ 4]  247 	ld	d, h
    000000CA D5               [16]  248 	push	de
    000000CB 1A               [ 8]  249 	ld	a, (de)
    000000CC 4F               [ 4]  250 	ld	c, a
    000000CD 13               [ 8]  251 	inc	de
    000000CE 1A               [ 8]  252 	ld	a, (de)
    000000CF 47               [ 4]  253 	ld	b, a
    000000D0 F8 02            [12]  254 	ldhl	sp,	#2
    000000D2 2A               [ 8]  255 	ld	a, (hl+)
    000000D3 66               [ 8]  256 	ld	h, (hl)
    000000D4 6F               [ 4]  257 	ld	l, a
    000000D5 23               [ 8]  258 	inc	hl
    000000D6 23               [ 8]  259 	inc	hl
    000000D7 2A               [ 8]  260 	ld	a,	(hl+)
    000000D8 66               [ 8]  261 	ld	h, (hl)
    000000D9 6F               [ 4]  262 	ld	l, a
    000000DA 79               [ 4]  263 	ld	a, c
    000000DB 95               [ 4]  264 	sub	a, l
    000000DC 4F               [ 4]  265 	ld	c, a
    000000DD 78               [ 4]  266 	ld	a, b
    000000DE 9C               [ 4]  267 	sbc	a, h
    000000DF 47               [ 4]  268 	ld	b, a
    000000E0 E1               [12]  269 	pop	hl
    000000E1 E5               [16]  270 	push	hl
    000000E2 79               [ 4]  271 	ld	a, c
    000000E3 22               [ 8]  272 	ld	(hl+), a
    000000E4 70               [ 8]  273 	ld	(hl), b
                                    274 ;Source/Engine/Systems/../Components/../Libraries/vec2.h:47: }
    000000E5 E8 06            [16]  275 	add	sp, #6
    000000E7 C9               [16]  276 	ret
                                    277 ;Source/Engine/Systems/../Components/../Libraries/vec2.h:50: static inline void vec2_scale(vec2 *a, f12 s) {
                                    278 ;	---------------------------------
                                    279 ; Function vec2_scale
                                    280 ; ---------------------------------
    000000E8                        281 _vec2_scale:
    000000E8 E8 F2            [16]  282 	add	sp, #-14
    000000EA F8 0C            [12]  283 	ldhl	sp,	#12
    000000EC 7B               [ 4]  284 	ld	a, e
    000000ED 22               [ 8]  285 	ld	(hl+), a
    000000EE 72               [ 8]  286 	ld	(hl), d
    000000EF F8 0A            [12]  287 	ldhl	sp,	#10
    000000F1 79               [ 4]  288 	ld	a, c
    000000F2 22               [ 8]  289 	ld	(hl+), a
                                    290 ;Source/Engine/Systems/../Components/../Libraries/vec2.h:52: a->x = ((int32_t)a->x * s) >> 4;
    000000F3 78               [ 4]  291 	ld	a, b
    000000F4 22               [ 8]  292 	ld	(hl+), a
    000000F5 7E               [ 8]  293 	ld	a, (hl)
    000000F6 F8 00            [12]  294 	ldhl	sp,	#0
    000000F8 77               [ 8]  295 	ld	(hl), a
    000000F9 F8 0D            [12]  296 	ldhl	sp,	#13
    000000FB 7E               [ 8]  297 	ld	a, (hl)
    000000FC F8 01            [12]  298 	ldhl	sp,	#1
    000000FE 22               [ 8]  299 	ld	(hl+), a
    000000FF D1               [12]  300 	pop	de
    00000100 D5               [16]  301 	push	de
    00000101 1A               [ 8]  302 	ld	a, (de)
    00000102 4F               [ 4]  303 	ld	c, a
    00000103 13               [ 8]  304 	inc	de
    00000104 1A               [ 8]  305 	ld	a, (de)
    00000105 71               [ 8]  306 	ld	(hl), c
    00000106 23               [ 8]  307 	inc	hl
    00000107 22               [ 8]  308 	ld	(hl+), a
    00000108 07               [ 4]  309 	rlca
    00000109 9F               [ 4]  310 	sbc	a, a
    0000010A 22               [ 8]  311 	ld	(hl+), a
    0000010B 77               [ 8]  312 	ld	(hl), a
    0000010C F8 0A            [12]  313 	ldhl	sp,	#10
    0000010E 7E               [ 8]  314 	ld	a, (hl)
    0000010F F8 06            [12]  315 	ldhl	sp,	#6
    00000111 77               [ 8]  316 	ld	(hl), a
    00000112 F8 0B            [12]  317 	ldhl	sp,	#11
    00000114 7E               [ 8]  318 	ld	a, (hl)
    00000115 F8 07            [12]  319 	ldhl	sp,	#7
    00000117 22               [ 8]  320 	ld	(hl+), a
    00000118 07               [ 4]  321 	rlca
    00000119 9F               [ 4]  322 	sbc	a, a
    0000011A 22               [ 8]  323 	ld	(hl+), a
    0000011B 32               [ 8]  324 	ld	(hl-), a
    0000011C 2A               [ 8]  325 	ld	a, (hl+)
    0000011D 5F               [ 4]  326 	ld	e, a
    0000011E 56               [ 8]  327 	ld	d, (hl)
    0000011F D5               [16]  328 	push	de
    00000120 F8 08            [12]  329 	ldhl	sp,	#8
    00000122 2A               [ 8]  330 	ld	a, (hl+)
    00000123 5F               [ 4]  331 	ld	e, a
    00000124 56               [ 8]  332 	ld	d, (hl)
    00000125 D5               [16]  333 	push	de
    00000126 F8 06            [12]  334 	ldhl	sp,	#6
    00000128 2A               [ 8]  335 	ld	a, (hl+)
    00000129 4F               [ 4]  336 	ld	c, a
    0000012A 2A               [ 8]  337 	ld	a, (hl+)
    0000012B 47               [ 4]  338 	ld	b, a
    0000012C 2A               [ 8]  339 	ld	a, (hl+)
    0000012D 5F               [ 4]  340 	ld	e, a
    0000012E 56               [ 8]  341 	ld	d, (hl)
    0000012F CDr00r00         [24]  342 	call	__mullong
    00000132 3E 04            [ 8]  343 	ld	a, #0x04
    00000134                        344 00103$:
    00000134 CB 2A            [ 8]  345 	sra	d
    00000136 CB 1B            [ 8]  346 	rr	e
    00000138 CB 18            [ 8]  347 	rr	b
    0000013A CB 19            [ 8]  348 	rr	c
    0000013C 3D               [ 4]  349 	dec	a
    0000013D 20 F5            [12]  350 	jr	NZ, 00103$
    0000013F E1               [12]  351 	pop	hl
    00000140 E5               [16]  352 	push	hl
    00000141 79               [ 4]  353 	ld	a, c
    00000142 22               [ 8]  354 	ld	(hl+), a
    00000143 70               [ 8]  355 	ld	(hl), b
                                    356 ;Source/Engine/Systems/../Components/../Libraries/vec2.h:53: a->y = ((int32_t)a->y * s) >> 4;
    00000144 F8 0C            [12]  357 	ldhl	sp,#12
    00000146 2A               [ 8]  358 	ld	a, (hl+)
    00000147 5F               [ 4]  359 	ld	e, a
    00000148 56               [ 8]  360 	ld	d, (hl)
    00000149 21 02 00         [12]  361 	ld	hl, #0x0002
    0000014C 19               [ 8]  362 	add	hl, de
    0000014D E5               [16]  363 	push	hl
    0000014E 7D               [ 4]  364 	ld	a, l
    0000014F F8 06            [12]  365 	ldhl	sp,	#6
    00000151 77               [ 8]  366 	ld	(hl), a
    00000152 E1               [12]  367 	pop	hl
    00000153 7C               [ 4]  368 	ld	a, h
    00000154 F8 05            [12]  369 	ldhl	sp,	#5
    00000156 32               [ 8]  370 	ld	(hl-), a
    00000157 2A               [ 8]  371 	ld	a, (hl+)
    00000158 5F               [ 4]  372 	ld	e, a
    00000159 56               [ 8]  373 	ld	d, (hl)
    0000015A 1A               [ 8]  374 	ld	a, (de)
    0000015B 4F               [ 4]  375 	ld	c, a
    0000015C 13               [ 8]  376 	inc	de
    0000015D 1A               [ 8]  377 	ld	a, (de)
    0000015E 47               [ 4]  378 	ld	b, a
    0000015F 07               [ 4]  379 	rlca
    00000160 9F               [ 4]  380 	sbc	a, a
    00000161 5F               [ 4]  381 	ld	e, a
    00000162 57               [ 4]  382 	ld	d, a
    00000163 F8 08            [12]  383 	ldhl	sp,	#8
    00000165 2A               [ 8]  384 	ld	a, (hl+)
    00000166 66               [ 8]  385 	ld	h, (hl)
    00000167 6F               [ 4]  386 	ld	l, a
    00000168 E5               [16]  387 	push	hl
    00000169 F8 08            [12]  388 	ldhl	sp,	#8
    0000016B 2A               [ 8]  389 	ld	a, (hl+)
    0000016C 66               [ 8]  390 	ld	h, (hl)
    0000016D 6F               [ 4]  391 	ld	l, a
    0000016E E5               [16]  392 	push	hl
    0000016F CDr00r00         [24]  393 	call	__mullong
    00000172 3E 04            [ 8]  394 	ld	a, #0x04
    00000174                        395 00105$:
    00000174 CB 2A            [ 8]  396 	sra	d
    00000176 CB 1B            [ 8]  397 	rr	e
    00000178 CB 18            [ 8]  398 	rr	b
    0000017A CB 19            [ 8]  399 	rr	c
    0000017C 3D               [ 4]  400 	dec	a
    0000017D 20 F5            [12]  401 	jr	NZ, 00105$
    0000017F F8 04            [12]  402 	ldhl	sp,	#4
    00000181 2A               [ 8]  403 	ld	a, (hl+)
    00000182 66               [ 8]  404 	ld	h, (hl)
    00000183 6F               [ 4]  405 	ld	l, a
    00000184 79               [ 4]  406 	ld	a, c
    00000185 22               [ 8]  407 	ld	(hl+), a
    00000186 70               [ 8]  408 	ld	(hl), b
                                    409 ;Source/Engine/Systems/../Components/../Libraries/vec2.h:54: }
    00000187 E8 0E            [16]  410 	add	sp, #14
    00000189 C9               [16]  411 	ret
                                    412 ;Source/Engine/Systems/../Components/../Libraries/vec2.h:57: static inline void vec2_copy(vec2 *dest, const vec2 *src) {
                                    413 ;	---------------------------------
                                    414 ; Function vec2_copy
                                    415 ; ---------------------------------
    0000018A                        416 _vec2_copy:
    0000018A E8 FC            [16]  417 	add	sp, #-4
    0000018C F8 02            [12]  418 	ldhl	sp,	#2
    0000018E 7B               [ 4]  419 	ld	a, e
    0000018F 22               [ 8]  420 	ld	(hl+), a
                                    421 ;Source/Engine/Systems/../Components/../Libraries/vec2.h:58: dest->x = src->x;
    00000190 7A               [ 4]  422 	ld	a, d
    00000191 32               [ 8]  423 	ld	(hl-), a
    00000192 33               [ 8]  424 	inc	sp
    00000193 33               [ 8]  425 	inc	sp
    00000194 C5               [16]  426 	push	bc
    00000195 2A               [ 8]  427 	ld	a, (hl+)
    00000196 4F               [ 4]  428 	ld	c, a
    00000197 46               [ 8]  429 	ld	b, (hl)
    00000198 D1               [12]  430 	pop	de
    00000199 D5               [16]  431 	push	de
    0000019A 1A               [ 8]  432 	ld	a, (de)
    0000019B 6F               [ 4]  433 	ld	l, a
    0000019C 13               [ 8]  434 	inc	de
    0000019D 1A               [ 8]  435 	ld	a, (de)
    0000019E 67               [ 4]  436 	ld	h, a
    0000019F 7D               [ 4]  437 	ld	a, l
    000001A0 02               [ 8]  438 	ld	(bc), a
    000001A1 03               [ 8]  439 	inc	bc
    000001A2 7C               [ 4]  440 	ld	a, h
    000001A3 02               [ 8]  441 	ld	(bc), a
                                    442 ;Source/Engine/Systems/../Components/../Libraries/vec2.h:59: dest->y = src->y;
    000001A4 F8 02            [12]  443 	ldhl	sp,	#2
    000001A6 2A               [ 8]  444 	ld	a, (hl+)
    000001A7 4F               [ 4]  445 	ld	c, a
    000001A8 46               [ 8]  446 	ld	b, (hl)
    000001A9 03               [ 8]  447 	inc	bc
    000001AA 03               [ 8]  448 	inc	bc
    000001AB E1               [12]  449 	pop	hl
    000001AC E5               [16]  450 	push	hl
    000001AD 23               [ 8]  451 	inc	hl
    000001AE 23               [ 8]  452 	inc	hl
    000001AF 2A               [ 8]  453 	ld	a,	(hl+)
    000001B0 66               [ 8]  454 	ld	h, (hl)
    000001B1 02               [ 8]  455 	ld	(bc), a
    000001B2 03               [ 8]  456 	inc	bc
    000001B3 7C               [ 4]  457 	ld	a, h
    000001B4 02               [ 8]  458 	ld	(bc), a
                                    459 ;Source/Engine/Systems/../Components/../Libraries/vec2.h:60: }
    000001B5 E8 04            [16]  460 	add	sp, #4
    000001B7 C9               [16]  461 	ret
                                    462 ;Source/Engine/Systems/../Components/../Libraries/vec2.h:63: static inline bool vec2_equal(const vec2 *a, const vec2 *b) {
                                    463 ;	---------------------------------
                                    464 ; Function vec2_equal
                                    465 ; ---------------------------------
    000001B8                        466 _vec2_equal:
    000001B8 E8 F8            [16]  467 	add	sp, #-8
    000001BA F8 06            [12]  468 	ldhl	sp,	#6
    000001BC 7B               [ 4]  469 	ld	a, e
    000001BD 22               [ 8]  470 	ld	(hl+), a
    000001BE 72               [ 8]  471 	ld	(hl), d
    000001BF F8 04            [12]  472 	ldhl	sp,	#4
    000001C1 79               [ 4]  473 	ld	a, c
    000001C2 22               [ 8]  474 	ld	(hl+), a
                                    475 ;Source/Engine/Systems/../Components/../Libraries/vec2.h:64: return a->x == b->x && a->y == b->y;
    000001C3 78               [ 4]  476 	ld	a, b
    000001C4 22               [ 8]  477 	ld	(hl+), a
    000001C5 2A               [ 8]  478 	ld	a, (hl+)
    000001C6 5F               [ 4]  479 	ld	e, a
    000001C7 3A               [ 8]  480 	ld	a, (hl-)
    000001C8 2B               [ 8]  481 	dec	hl
    000001C9 2B               [ 8]  482 	dec	hl
    000001CA 57               [ 4]  483 	ld	d, a
    000001CB 1A               [ 8]  484 	ld	a, (de)
    000001CC 4F               [ 4]  485 	ld	c, a
    000001CD 13               [ 8]  486 	inc	de
    000001CE 1A               [ 8]  487 	ld	a, (de)
    000001CF 47               [ 4]  488 	ld	b, a
    000001D0 2A               [ 8]  489 	ld	a, (hl+)
    000001D1 5F               [ 4]  490 	ld	e, a
    000001D2 56               [ 8]  491 	ld	d, (hl)
    000001D3 1A               [ 8]  492 	ld	a, (de)
    000001D4 6F               [ 4]  493 	ld	l, a
    000001D5 13               [ 8]  494 	inc	de
    000001D6 1A               [ 8]  495 	ld	a, (de)
    000001D7 67               [ 4]  496 	ld	h, a
    000001D8 7D               [ 4]  497 	ld	a, l
    000001D9 91               [ 4]  498 	sub	a, c
    000001DA 20 3D            [12]  499 	jr	NZ, 00103$
    000001DC 7C               [ 4]  500 	ld	a, h
    000001DD 90               [ 4]  501 	sub	a, b
    000001DE 20 39            [12]  502 	jr	NZ, 00103$
    000001E0 F8 06            [12]  503 	ldhl	sp,	#6
    000001E2 2A               [ 8]  504 	ld	a, (hl+)
    000001E3 4F               [ 4]  505 	ld	c, a
    000001E4 46               [ 8]  506 	ld	b, (hl)
    000001E5 03               [ 8]  507 	inc	bc
    000001E6 03               [ 8]  508 	inc	bc
    000001E7 59               [ 4]  509 	ld	e, c
    000001E8 50               [ 4]  510 	ld	d, b
    000001E9 1A               [ 8]  511 	ld	a, (de)
    000001EA F8 00            [12]  512 	ldhl	sp,	#0
    000001EC 22               [ 8]  513 	ld	(hl+), a
    000001ED 13               [ 8]  514 	inc	de
    000001EE 1A               [ 8]  515 	ld	a, (de)
    000001EF 77               [ 8]  516 	ld	(hl), a
    000001F0 F8 04            [12]  517 	ldhl	sp,#4
    000001F2 2A               [ 8]  518 	ld	a, (hl+)
    000001F3 5F               [ 4]  519 	ld	e, a
    000001F4 56               [ 8]  520 	ld	d, (hl)
    000001F5 21 02 00         [12]  521 	ld	hl, #0x0002
    000001F8 19               [ 8]  522 	add	hl, de
    000001F9 E5               [16]  523 	push	hl
    000001FA 7D               [ 4]  524 	ld	a, l
    000001FB F8 04            [12]  525 	ldhl	sp,	#4
    000001FD 77               [ 8]  526 	ld	(hl), a
    000001FE E1               [12]  527 	pop	hl
    000001FF 7C               [ 4]  528 	ld	a, h
    00000200 F8 03            [12]  529 	ldhl	sp,	#3
    00000202 32               [ 8]  530 	ld	(hl-), a
    00000203 2A               [ 8]  531 	ld	a, (hl+)
    00000204 5F               [ 4]  532 	ld	e, a
    00000205 3A               [ 8]  533 	ld	a, (hl-)
    00000206 57               [ 4]  534 	ld	d, a
    00000207 1A               [ 8]  535 	ld	a, (de)
    00000208 22               [ 8]  536 	ld	(hl+), a
    00000209 13               [ 8]  537 	inc	de
    0000020A 1A               [ 8]  538 	ld	a, (de)
    0000020B 77               [ 8]  539 	ld	(hl), a
    0000020C F8 00            [12]  540 	ldhl	sp,	#0
    0000020E 2A               [ 8]  541 	ld	a, (hl+)
    0000020F 23               [ 8]  542 	inc	hl
    00000210 96               [ 8]  543 	sub	a, (hl)
    00000211 20 06            [12]  544 	jr	NZ, 00115$
    00000213 2B               [ 8]  545 	dec	hl
    00000214 2A               [ 8]  546 	ld	a, (hl+)
    00000215 23               [ 8]  547 	inc	hl
    00000216 96               [ 8]  548 	sub	a, (hl)
    00000217 28 03            [12]  549 	jr	Z, 00104$
    00000219                        550 00115$:
    00000219                        551 00103$:
    00000219 AF               [ 4]  552 	xor	a, a
    0000021A 18 02            [12]  553 	jr	00105$
    0000021C                        554 00104$:
    0000021C 3E 01            [ 8]  555 	ld	a, #0x01
    0000021E                        556 00105$:
                                    557 ;Source/Engine/Systems/../Components/../Libraries/vec2.h:65: }
    0000021E E8 08            [16]  558 	add	sp, #8
    00000220 C9               [16]  559 	ret
                                    560 ;Source/Engine/Systems/../Components/sprite_component.h:60: static inline uint8_t getSpriteHeight(uint8_t entityID) {
                                    561 ;	---------------------------------
                                    562 ; Function getSpriteHeight
                                    563 ; ---------------------------------
    00000221                        564 _getSpriteHeight:
    00000221 E8 FC            [16]  565 	add	sp, #-4
    00000223 F8 02            [12]  566 	ldhl	sp,	#2
                                    567 ;Source/Engine/Systems/../Components/sprite_component.h:61: for (uint8_t i = 0; i < SPRITE_POOL_SIZE; i++) {
    00000225 32               [ 8]  568 	ld	(hl-), a
    00000226 AF               [ 4]  569 	xor	a, a
    00000227 22               [ 8]  570 	ld	(hl+), a
    00000228 23               [ 8]  571 	inc	hl
    00000229 36 00            [12]  572 	ld	(hl), #0x00
    0000022B                        573 00105$:
    0000022B F8 03            [12]  574 	ldhl	sp,	#3
    0000022D 7E               [ 8]  575 	ld	a, (hl)
    0000022E D6 32            [ 8]  576 	sub	a, #0x32
    00000230 30 2D            [12]  577 	jr	NC, 00103$
                                    578 ;Source/Engine/Systems/../Components/sprite_component.h:62: if (spriteComponent.entityID[i] == entityID) {
    00000232 11r00r00         [12]  579 	ld	de, #_spriteComponent
    00000235 6E               [ 8]  580 	ld	l, (hl)
    00000236 26 00            [ 8]  581 	ld	h, #0x00
    00000238 19               [ 8]  582 	add	hl, de
    00000239 4D               [ 4]  583 	ld	c, l
    0000023A 44               [ 4]  584 	ld	b, h
    0000023B 0A               [ 8]  585 	ld	a, (bc)
    0000023C 4F               [ 4]  586 	ld	c, a
    0000023D F8 02            [12]  587 	ldhl	sp,	#2
    0000023F 7E               [ 8]  588 	ld	a, (hl)
    00000240 91               [ 4]  589 	sub	a, c
    00000241 20 14            [12]  590 	jr	NZ, 00106$
                                    591 ;Source/Engine/Systems/../Components/sprite_component.h:63: return spriteComponent.height[i];
    00000243 11rFAr00         [12]  592 	ld	de, #(_spriteComponent + 250)
    00000246 F8 01            [12]  593 	ldhl	sp,	#1
    00000248 6E               [ 8]  594 	ld	l, (hl)
    00000249 26 00            [ 8]  595 	ld	h, #0x00
    0000024B 19               [ 8]  596 	add	hl, de
    0000024C 33               [ 8]  597 	inc	sp
    0000024D 33               [ 8]  598 	inc	sp
    0000024E 5D               [ 4]  599 	ld	e, l
    0000024F 54               [ 4]  600 	ld	d, h
    00000250 D5               [16]  601 	push	de
    00000251 1A               [ 8]  602 	ld	a, (de)
    00000252 F8 03            [12]  603 	ldhl	sp,	#3
    00000254 77               [ 8]  604 	ld	(hl), a
    00000255 18 09            [12]  605 	jr	00107$
    00000257                        606 00106$:
                                    607 ;Source/Engine/Systems/../Components/sprite_component.h:61: for (uint8_t i = 0; i < SPRITE_POOL_SIZE; i++) {
    00000257 F8 03            [12]  608 	ldhl	sp,	#3
    00000259 34               [12]  609 	inc	(hl)
    0000025A 3A               [ 8]  610 	ld	a, (hl-)
    0000025B 2B               [ 8]  611 	dec	hl
    0000025C 77               [ 8]  612 	ld	(hl), a
    0000025D 18 CC            [12]  613 	jr	00105$
    0000025F                        614 00103$:
                                    615 ;Source/Engine/Systems/../Components/sprite_component.h:66: return 0;
    0000025F AF               [ 4]  616 	xor	a, a
    00000260                        617 00107$:
                                    618 ;Source/Engine/Systems/../Components/sprite_component.h:67: }
    00000260 E8 04            [16]  619 	add	sp, #4
    00000262 C9               [16]  620 	ret
                                    621 ;Source/Engine/Systems/../Components/sprite_component.h:70: static inline void setSpriteHeight(uint8_t entityID, uint8_t height) {
                                    622 ;	---------------------------------
                                    623 ; Function setSpriteHeight
                                    624 ; ---------------------------------
    00000263                        625 _setSpriteHeight:
    00000263 E8 FB            [16]  626 	add	sp, #-5
    00000265 F8 03            [12]  627 	ldhl	sp,	#3
    00000267 32               [ 8]  628 	ld	(hl-), a
                                    629 ;Source/Engine/Systems/../Components/sprite_component.h:71: for (uint8_t i = 0; i < SPRITE_POOL_SIZE; i++) {
    00000268 7B               [ 4]  630 	ld	a, e
    00000269 32               [ 8]  631 	ld	(hl-), a
    0000026A 36 00            [12]  632 	ld	(hl), #0x00
    0000026C F8 04            [12]  633 	ldhl	sp,	#4
    0000026E 36 00            [12]  634 	ld	(hl), #0x00
    00000270                        635 00105$:
    00000270 F8 04            [12]  636 	ldhl	sp,	#4
    00000272 7E               [ 8]  637 	ld	a, (hl)
    00000273 D6 32            [ 8]  638 	sub	a, #0x32
    00000275 30 2E            [12]  639 	jr	NC, 00107$
                                    640 ;Source/Engine/Systems/../Components/sprite_component.h:72: if (spriteComponent.entityID[i] == entityID) {
    00000277 11r00r00         [12]  641 	ld	de, #_spriteComponent
    0000027A 6E               [ 8]  642 	ld	l, (hl)
    0000027B 26 00            [ 8]  643 	ld	h, #0x00
    0000027D 19               [ 8]  644 	add	hl, de
    0000027E 4D               [ 4]  645 	ld	c, l
    0000027F 44               [ 4]  646 	ld	b, h
    00000280 0A               [ 8]  647 	ld	a, (bc)
    00000281 4F               [ 4]  648 	ld	c, a
    00000282 F8 03            [12]  649 	ldhl	sp,	#3
    00000284 7E               [ 8]  650 	ld	a, (hl)
    00000285 91               [ 4]  651 	sub	a, c
    00000286 20 14            [12]  652 	jr	NZ, 00106$
                                    653 ;Source/Engine/Systems/../Components/sprite_component.h:73: spriteComponent.height[i] = height;
    00000288 11rFAr00         [12]  654 	ld	de, #(_spriteComponent + 250)
    0000028B F8 01            [12]  655 	ldhl	sp,	#1
    0000028D 6E               [ 8]  656 	ld	l, (hl)
    0000028E 26 00            [ 8]  657 	ld	h, #0x00
    00000290 19               [ 8]  658 	add	hl, de
    00000291 33               [ 8]  659 	inc	sp
    00000292 33               [ 8]  660 	inc	sp
    00000293 5D               [ 4]  661 	ld	e, l
    00000294 54               [ 4]  662 	ld	d, h
    00000295 D5               [16]  663 	push	de
    00000296 F8 02            [12]  664 	ldhl	sp,	#2
    00000298 7E               [ 8]  665 	ld	a, (hl)
    00000299 12               [ 8]  666 	ld	(de), a
                                    667 ;Source/Engine/Systems/../Components/sprite_component.h:74: return;
    0000029A 18 09            [12]  668 	jr	00107$
    0000029C                        669 00106$:
                                    670 ;Source/Engine/Systems/../Components/sprite_component.h:71: for (uint8_t i = 0; i < SPRITE_POOL_SIZE; i++) {
    0000029C F8 04            [12]  671 	ldhl	sp,	#4
    0000029E 34               [12]  672 	inc	(hl)
    0000029F 7E               [ 8]  673 	ld	a, (hl)
    000002A0 F8 01            [12]  674 	ldhl	sp,	#1
    000002A2 77               [ 8]  675 	ld	(hl), a
    000002A3 18 CB            [12]  676 	jr	00105$
    000002A5                        677 00107$:
                                    678 ;Source/Engine/Systems/../Components/sprite_component.h:77: }
    000002A5 E8 05            [16]  679 	add	sp, #5
    000002A7 C9               [16]  680 	ret
                                    681 ;Source/Engine/Systems/../Components/sprite_component.h:80: static inline uint8_t getSpriteZIndex(uint8_t entityID) {
                                    682 ;	---------------------------------
                                    683 ; Function getSpriteZIndex
                                    684 ; ---------------------------------
    000002A8                        685 _getSpriteZIndex:
    000002A8 E8 FC            [16]  686 	add	sp, #-4
    000002AA F8 02            [12]  687 	ldhl	sp,	#2
                                    688 ;Source/Engine/Systems/../Components/sprite_component.h:81: for (uint8_t i = 0; i < SPRITE_POOL_SIZE; i++) {
    000002AC 32               [ 8]  689 	ld	(hl-), a
    000002AD AF               [ 4]  690 	xor	a, a
    000002AE 22               [ 8]  691 	ld	(hl+), a
    000002AF 23               [ 8]  692 	inc	hl
    000002B0 36 00            [12]  693 	ld	(hl), #0x00
    000002B2                        694 00105$:
    000002B2 F8 03            [12]  695 	ldhl	sp,	#3
    000002B4 7E               [ 8]  696 	ld	a, (hl)
    000002B5 D6 32            [ 8]  697 	sub	a, #0x32
    000002B7 30 36            [12]  698 	jr	NC, 00103$
                                    699 ;Source/Engine/Systems/../Components/sprite_component.h:82: if (spriteComponent.entityID[i] == entityID) {
    000002B9 11r00r00         [12]  700 	ld	de, #_spriteComponent
    000002BC 6E               [ 8]  701 	ld	l, (hl)
    000002BD 26 00            [ 8]  702 	ld	h, #0x00
    000002BF 19               [ 8]  703 	add	hl, de
    000002C0 4D               [ 4]  704 	ld	c, l
    000002C1 44               [ 4]  705 	ld	b, h
    000002C2 0A               [ 8]  706 	ld	a, (bc)
    000002C3 4F               [ 4]  707 	ld	c, a
    000002C4 F8 02            [12]  708 	ldhl	sp,	#2
    000002C6 7E               [ 8]  709 	ld	a, (hl)
    000002C7 91               [ 4]  710 	sub	a, c
    000002C8 20 1D            [12]  711 	jr	NZ, 00106$
                                    712 ;Source/Engine/Systems/../Components/sprite_component.h:83: return SPRITE_GET_Z(spriteComponent.flags[i]);
    000002CA 11r90r01         [12]  713 	ld	de, #(_spriteComponent + 400)
    000002CD F8 01            [12]  714 	ldhl	sp,	#1
    000002CF 6E               [ 8]  715 	ld	l, (hl)
    000002D0 26 00            [ 8]  716 	ld	h, #0x00
    000002D2 19               [ 8]  717 	add	hl, de
    000002D3 33               [ 8]  718 	inc	sp
    000002D4 33               [ 8]  719 	inc	sp
    000002D5 5D               [ 4]  720 	ld	e, l
    000002D6 54               [ 4]  721 	ld	d, h
    000002D7 D5               [16]  722 	push	de
    000002D8 1A               [ 8]  723 	ld	a, (de)
    000002D9 F8 03            [12]  724 	ldhl	sp,	#3
    000002DB 77               [ 8]  725 	ld	(hl), a
    000002DC E6 38            [ 8]  726 	and	a, #0x38
    000002DE 77               [ 8]  727 	ld	(hl), a
    000002DF CB 37            [ 8]  728 	swap	a
    000002E1 07               [ 4]  729 	rlca
    000002E2 E6 1F            [ 8]  730 	and	a, #0x1f
    000002E4 77               [ 8]  731 	ld	(hl), a
    000002E5 18 09            [12]  732 	jr	00107$
    000002E7                        733 00106$:
                                    734 ;Source/Engine/Systems/../Components/sprite_component.h:81: for (uint8_t i = 0; i < SPRITE_POOL_SIZE; i++) {
    000002E7 F8 03            [12]  735 	ldhl	sp,	#3
    000002E9 34               [12]  736 	inc	(hl)
    000002EA 3A               [ 8]  737 	ld	a, (hl-)
    000002EB 2B               [ 8]  738 	dec	hl
    000002EC 77               [ 8]  739 	ld	(hl), a
    000002ED 18 C3            [12]  740 	jr	00105$
    000002EF                        741 00103$:
                                    742 ;Source/Engine/Systems/../Components/sprite_component.h:86: return 0;
    000002EF AF               [ 4]  743 	xor	a, a
    000002F0                        744 00107$:
                                    745 ;Source/Engine/Systems/../Components/sprite_component.h:87: }
    000002F0 E8 04            [16]  746 	add	sp, #4
    000002F2 C9               [16]  747 	ret
                                    748 ;Source/Engine/Systems/../Components/sprite_component.h:90: static inline vec2_i getSpriteOffset(uint8_t entityID) {
                                    749 ;	---------------------------------
                                    750 ; Function getSpriteOffset
                                    751 ; ---------------------------------
    000002F3                        752 _getSpriteOffset:
    000002F3 E8 FD            [16]  753 	add	sp, #-3
    000002F5 F8 02            [12]  754 	ldhl	sp,	#2
                                    755 ;Source/Engine/Systems/../Components/sprite_component.h:91: vec2_i result = {0, 0};
    000002F7 32               [ 8]  756 	ld	(hl-), a
    000002F8 2B               [ 8]  757 	dec	hl
    000002F9 AF               [ 4]  758 	xor	a, a
    000002FA 22               [ 8]  759 	ld	(hl+), a
    000002FB 77               [ 8]  760 	ld	(hl), a
                                    761 ;Source/Engine/Systems/../Components/sprite_component.h:92: for (uint8_t i = 0; i < SPRITE_POOL_SIZE; i++) {
    000002FC 0E 00            [ 8]  762 	ld	c, #0x00
    000002FE 59               [ 4]  763 	ld	e, c
    000002FF                        764 00105$:
    000002FF 7B               [ 4]  765 	ld	a, e
    00000300 D6 32            [ 8]  766 	sub	a, #0x32
    00000302 30 36            [12]  767 	jr	NC, 00103$
                                    768 ;Source/Engine/Systems/../Components/sprite_component.h:93: if (spriteComponent.entityID[i] == entityID) {
    00000304 21r00r00         [12]  769 	ld	hl, #_spriteComponent
    00000307 16 00            [ 8]  770 	ld	d, #0x00
    00000309 19               [ 8]  771 	add	hl, de
    0000030A 46               [ 8]  772 	ld	b, (hl)
    0000030B F8 02            [12]  773 	ldhl	sp,	#2
    0000030D 7E               [ 8]  774 	ld	a, (hl)
    0000030E 90               [ 4]  775 	sub	a, b
    0000030F 20 25            [12]  776 	jr	NZ, 00106$
                                    777 ;Source/Engine/Systems/../Components/sprite_component.h:94: result = spriteComponent.offset[i];
    00000311 79               [ 4]  778 	ld	a, c
    00000312 87               [ 4]  779 	add	a, a
    00000313 C6r2C            [ 8]  780 	add	a, #<((_spriteComponent + 300))
    00000315 4F               [ 4]  781 	ld	c, a
    00000316 3E 00            [ 8]  782 	ld	a, #0x00
    00000318 CEs01            [ 8]  783 	adc	a, #>((_spriteComponent + 300))
    0000031A 47               [ 4]  784 	ld	b, a
    0000031B 21 00 00         [12]  785 	ld	hl, #0
    0000031E 39               [ 8]  786 	add	hl, sp
    0000031F 5D               [ 4]  787 	ld	e, l
    00000320 54               [ 4]  788 	ld	d, h
    00000321 21 02 00         [12]  789 	ld	hl, #0x0002
    00000324 E5               [16]  790 	push	hl
    00000325 CDr00r00         [24]  791 	call	___memcpy
                                    792 ;Source/Engine/Systems/../Components/sprite_component.h:95: return result;
    00000328 F8 05            [12]  793 	ldhl	sp,	#5
    0000032A 2A               [ 8]  794 	ld	a, (hl+)
    0000032B 4F               [ 4]  795 	ld	c, a
    0000032C 46               [ 8]  796 	ld	b, (hl)
    0000032D F8 00            [12]  797 	ldhl	sp,	#0
    0000032F 2A               [ 8]  798 	ld	a, (hl+)
    00000330 02               [ 8]  799 	ld	(bc), a
    00000331 03               [ 8]  800 	inc	bc
    00000332 7E               [ 8]  801 	ld	a, (hl)
    00000333 02               [ 8]  802 	ld	(bc), a
    00000334 18 10            [12]  803 	jr	00107$
    00000336                        804 00106$:
                                    805 ;Source/Engine/Systems/../Components/sprite_component.h:92: for (uint8_t i = 0; i < SPRITE_POOL_SIZE; i++) {
    00000336 1C               [ 4]  806 	inc	e
    00000337 4B               [ 4]  807 	ld	c, e
    00000338 18 C5            [12]  808 	jr	00105$
    0000033A                        809 00103$:
                                    810 ;Source/Engine/Systems/../Components/sprite_component.h:98: return result;
    0000033A F8 05            [12]  811 	ldhl	sp,	#5
    0000033C 2A               [ 8]  812 	ld	a, (hl+)
    0000033D 4F               [ 4]  813 	ld	c, a
    0000033E 46               [ 8]  814 	ld	b, (hl)
    0000033F F8 00            [12]  815 	ldhl	sp,	#0
    00000341 2A               [ 8]  816 	ld	a, (hl+)
    00000342 02               [ 8]  817 	ld	(bc), a
    00000343 03               [ 8]  818 	inc	bc
    00000344 7E               [ 8]  819 	ld	a, (hl)
    00000345 02               [ 8]  820 	ld	(bc), a
    00000346                        821 00107$:
                                    822 ;Source/Engine/Systems/../Components/sprite_component.h:99: }
    00000346 E8 03            [16]  823 	add	sp, #3
    00000348 E1               [12]  824 	pop	hl
    00000349 F1               [12]  825 	pop	af
    0000034A E9               [ 4]  826 	jp	(hl)
                                    827 ;Source/Engine/Systems/../Components/sprite_component.h:102: static inline bool getSpriteWorldFlag(uint8_t entityID) {
                                    828 ;	---------------------------------
                                    829 ; Function getSpriteWorldFlag
                                    830 ; ---------------------------------
    0000034B                        831 _getSpriteWorldFlag:
    0000034B E8 FC            [16]  832 	add	sp, #-4
    0000034D F8 02            [12]  833 	ldhl	sp,	#2
                                    834 ;Source/Engine/Systems/../Components/sprite_component.h:103: for (uint8_t i = 0; i < SPRITE_POOL_SIZE; i++) {
    0000034F 32               [ 8]  835 	ld	(hl-), a
    00000350 AF               [ 4]  836 	xor	a, a
    00000351 22               [ 8]  837 	ld	(hl+), a
    00000352 23               [ 8]  838 	inc	hl
    00000353 36 00            [12]  839 	ld	(hl), #0x00
    00000355                        840 00105$:
    00000355 F8 03            [12]  841 	ldhl	sp,	#3
    00000357 7E               [ 8]  842 	ld	a, (hl)
    00000358 D6 32            [ 8]  843 	sub	a, #0x32
    0000035A 30 39            [12]  844 	jr	NC, 00103$
                                    845 ;Source/Engine/Systems/../Components/sprite_component.h:104: if (spriteComponent.entityID[i] == entityID) {
    0000035C 11r00r00         [12]  846 	ld	de, #_spriteComponent
    0000035F 6E               [ 8]  847 	ld	l, (hl)
    00000360 26 00            [ 8]  848 	ld	h, #0x00
    00000362 19               [ 8]  849 	add	hl, de
    00000363 4D               [ 4]  850 	ld	c, l
    00000364 44               [ 4]  851 	ld	b, h
    00000365 0A               [ 8]  852 	ld	a, (bc)
    00000366 4F               [ 4]  853 	ld	c, a
    00000367 F8 02            [12]  854 	ldhl	sp,	#2
    00000369 7E               [ 8]  855 	ld	a, (hl)
    0000036A 91               [ 4]  856 	sub	a, c
    0000036B 20 20            [12]  857 	jr	NZ, 00106$
                                    858 ;Source/Engine/Systems/../Components/sprite_component.h:105: return (spriteComponent.flags[i] & SPRITE_FLAG_WORLD) != 0;
    0000036D 11r90r01         [12]  859 	ld	de, #(_spriteComponent + 400)
    00000370 F8 01            [12]  860 	ldhl	sp,	#1
    00000372 6E               [ 8]  861 	ld	l, (hl)
    00000373 26 00            [ 8]  862 	ld	h, #0x00
    00000375 19               [ 8]  863 	add	hl, de
    00000376 33               [ 8]  864 	inc	sp
    00000377 33               [ 8]  865 	inc	sp
    00000378 5D               [ 4]  866 	ld	e, l
    00000379 54               [ 4]  867 	ld	d, h
    0000037A D5               [16]  868 	push	de
    0000037B 1A               [ 8]  869 	ld	a, (de)
    0000037C F8 03            [12]  870 	ldhl	sp,	#3
    0000037E 77               [ 8]  871 	ld	(hl), a
    0000037F E6 01            [ 8]  872 	and	a, #0x01
    00000381 77               [ 8]  873 	ld	(hl), a
    00000382 D6 01            [ 8]  874 	sub	a, #0x01
    00000384 3E 00            [ 8]  875 	ld	a, #0x00
    00000386 17               [ 4]  876 	rla
    00000387 77               [ 8]  877 	ld	(hl), a
    00000388 EE 01            [ 8]  878 	xor	a, #0x01
    0000038A 77               [ 8]  879 	ld	(hl), a
    0000038B 18 09            [12]  880 	jr	00107$
    0000038D                        881 00106$:
                                    882 ;Source/Engine/Systems/../Components/sprite_component.h:103: for (uint8_t i = 0; i < SPRITE_POOL_SIZE; i++) {
    0000038D F8 03            [12]  883 	ldhl	sp,	#3
    0000038F 34               [12]  884 	inc	(hl)
    00000390 3A               [ 8]  885 	ld	a, (hl-)
    00000391 2B               [ 8]  886 	dec	hl
    00000392 77               [ 8]  887 	ld	(hl), a
    00000393 18 C0            [12]  888 	jr	00105$
    00000395                        889 00103$:
                                    890 ;Source/Engine/Systems/../Components/sprite_component.h:108: return false;
    00000395 AF               [ 4]  891 	xor	a, a
    00000396                        892 00107$:
                                    893 ;Source/Engine/Systems/../Components/sprite_component.h:109: }
    00000396 E8 04            [16]  894 	add	sp, #4
    00000398 C9               [16]  895 	ret
                                    896 ;Source/Engine/Systems/../Components/sprite_component.h:112: static inline bool getSpriteFlipX(uint8_t entityID) {
                                    897 ;	---------------------------------
                                    898 ; Function getSpriteFlipX
                                    899 ; ---------------------------------
    00000399                        900 _getSpriteFlipX:
    00000399 E8 FC            [16]  901 	add	sp, #-4
    0000039B F8 02            [12]  902 	ldhl	sp,	#2
                                    903 ;Source/Engine/Systems/../Components/sprite_component.h:113: for (uint8_t i = 0; i < SPRITE_POOL_SIZE; i++) {
    0000039D 32               [ 8]  904 	ld	(hl-), a
    0000039E AF               [ 4]  905 	xor	a, a
    0000039F 22               [ 8]  906 	ld	(hl+), a
    000003A0 23               [ 8]  907 	inc	hl
    000003A1 36 00            [12]  908 	ld	(hl), #0x00
    000003A3                        909 00105$:
    000003A3 F8 03            [12]  910 	ldhl	sp,	#3
    000003A5 7E               [ 8]  911 	ld	a, (hl)
    000003A6 D6 32            [ 8]  912 	sub	a, #0x32
    000003A8 30 39            [12]  913 	jr	NC, 00103$
                                    914 ;Source/Engine/Systems/../Components/sprite_component.h:114: if (spriteComponent.entityID[i] == entityID) {
    000003AA 11r00r00         [12]  915 	ld	de, #_spriteComponent
    000003AD 6E               [ 8]  916 	ld	l, (hl)
    000003AE 26 00            [ 8]  917 	ld	h, #0x00
    000003B0 19               [ 8]  918 	add	hl, de
    000003B1 4D               [ 4]  919 	ld	c, l
    000003B2 44               [ 4]  920 	ld	b, h
    000003B3 0A               [ 8]  921 	ld	a, (bc)
    000003B4 4F               [ 4]  922 	ld	c, a
    000003B5 F8 02            [12]  923 	ldhl	sp,	#2
    000003B7 7E               [ 8]  924 	ld	a, (hl)
    000003B8 91               [ 4]  925 	sub	a, c
    000003B9 20 20            [12]  926 	jr	NZ, 00106$
                                    927 ;Source/Engine/Systems/../Components/sprite_component.h:115: return (spriteComponent.flags[i] & SPRITE_FLIP_X) != 0;
    000003BB 11r90r01         [12]  928 	ld	de, #(_spriteComponent + 400)
    000003BE F8 01            [12]  929 	ldhl	sp,	#1
    000003C0 6E               [ 8]  930 	ld	l, (hl)
    000003C1 26 00            [ 8]  931 	ld	h, #0x00
    000003C3 19               [ 8]  932 	add	hl, de
    000003C4 33               [ 8]  933 	inc	sp
    000003C5 33               [ 8]  934 	inc	sp
    000003C6 5D               [ 4]  935 	ld	e, l
    000003C7 54               [ 4]  936 	ld	d, h
    000003C8 D5               [16]  937 	push	de
    000003C9 1A               [ 8]  938 	ld	a, (de)
    000003CA F8 03            [12]  939 	ldhl	sp,	#3
    000003CC 77               [ 8]  940 	ld	(hl), a
    000003CD E6 02            [ 8]  941 	and	a, #0x02
    000003CF 77               [ 8]  942 	ld	(hl), a
    000003D0 D6 01            [ 8]  943 	sub	a, #0x01
    000003D2 3E 00            [ 8]  944 	ld	a, #0x00
    000003D4 17               [ 4]  945 	rla
    000003D5 77               [ 8]  946 	ld	(hl), a
    000003D6 EE 01            [ 8]  947 	xor	a, #0x01
    000003D8 77               [ 8]  948 	ld	(hl), a
    000003D9 18 09            [12]  949 	jr	00107$
    000003DB                        950 00106$:
                                    951 ;Source/Engine/Systems/../Components/sprite_component.h:113: for (uint8_t i = 0; i < SPRITE_POOL_SIZE; i++) {
    000003DB F8 03            [12]  952 	ldhl	sp,	#3
    000003DD 34               [12]  953 	inc	(hl)
    000003DE 3A               [ 8]  954 	ld	a, (hl-)
    000003DF 2B               [ 8]  955 	dec	hl
    000003E0 77               [ 8]  956 	ld	(hl), a
    000003E1 18 C0            [12]  957 	jr	00105$
    000003E3                        958 00103$:
                                    959 ;Source/Engine/Systems/../Components/sprite_component.h:118: return false;
    000003E3 AF               [ 4]  960 	xor	a, a
    000003E4                        961 00107$:
                                    962 ;Source/Engine/Systems/../Components/sprite_component.h:119: }
    000003E4 E8 04            [16]  963 	add	sp, #4
    000003E6 C9               [16]  964 	ret
                                    965 ;Source/Engine/Systems/../Components/sprite_component.h:122: static inline bool getSpriteFlipY(uint8_t entityID) {
                                    966 ;	---------------------------------
                                    967 ; Function getSpriteFlipY
                                    968 ; ---------------------------------
    000003E7                        969 _getSpriteFlipY:
    000003E7 E8 FC            [16]  970 	add	sp, #-4
    000003E9 F8 02            [12]  971 	ldhl	sp,	#2
                                    972 ;Source/Engine/Systems/../Components/sprite_component.h:123: for (uint8_t i = 0; i < SPRITE_POOL_SIZE; i++) {
    000003EB 32               [ 8]  973 	ld	(hl-), a
    000003EC AF               [ 4]  974 	xor	a, a
    000003ED 22               [ 8]  975 	ld	(hl+), a
    000003EE 23               [ 8]  976 	inc	hl
    000003EF 36 00            [12]  977 	ld	(hl), #0x00
    000003F1                        978 00105$:
    000003F1 F8 03            [12]  979 	ldhl	sp,	#3
    000003F3 7E               [ 8]  980 	ld	a, (hl)
    000003F4 D6 32            [ 8]  981 	sub	a, #0x32
    000003F6 30 39            [12]  982 	jr	NC, 00103$
                                    983 ;Source/Engine/Systems/../Components/sprite_component.h:124: if (spriteComponent.entityID[i] == entityID) {
    000003F8 11r00r00         [12]  984 	ld	de, #_spriteComponent
    000003FB 6E               [ 8]  985 	ld	l, (hl)
    000003FC 26 00            [ 8]  986 	ld	h, #0x00
    000003FE 19               [ 8]  987 	add	hl, de
    000003FF 4D               [ 4]  988 	ld	c, l
    00000400 44               [ 4]  989 	ld	b, h
    00000401 0A               [ 8]  990 	ld	a, (bc)
    00000402 4F               [ 4]  991 	ld	c, a
    00000403 F8 02            [12]  992 	ldhl	sp,	#2
    00000405 7E               [ 8]  993 	ld	a, (hl)
    00000406 91               [ 4]  994 	sub	a, c
    00000407 20 20            [12]  995 	jr	NZ, 00106$
                                    996 ;Source/Engine/Systems/../Components/sprite_component.h:125: return (spriteComponent.flags[i] & SPRITE_FLIP_Y) != 0;
    00000409 11r90r01         [12]  997 	ld	de, #(_spriteComponent + 400)
    0000040C F8 01            [12]  998 	ldhl	sp,	#1
    0000040E 6E               [ 8]  999 	ld	l, (hl)
    0000040F 26 00            [ 8] 1000 	ld	h, #0x00
    00000411 19               [ 8] 1001 	add	hl, de
    00000412 33               [ 8] 1002 	inc	sp
    00000413 33               [ 8] 1003 	inc	sp
    00000414 5D               [ 4] 1004 	ld	e, l
    00000415 54               [ 4] 1005 	ld	d, h
    00000416 D5               [16] 1006 	push	de
    00000417 1A               [ 8] 1007 	ld	a, (de)
    00000418 F8 03            [12] 1008 	ldhl	sp,	#3
    0000041A 77               [ 8] 1009 	ld	(hl), a
    0000041B E6 04            [ 8] 1010 	and	a, #0x04
    0000041D 77               [ 8] 1011 	ld	(hl), a
    0000041E D6 01            [ 8] 1012 	sub	a, #0x01
    00000420 3E 00            [ 8] 1013 	ld	a, #0x00
    00000422 17               [ 4] 1014 	rla
    00000423 77               [ 8] 1015 	ld	(hl), a
    00000424 EE 01            [ 8] 1016 	xor	a, #0x01
    00000426 77               [ 8] 1017 	ld	(hl), a
    00000427 18 09            [12] 1018 	jr	00107$
    00000429                       1019 00106$:
                                   1020 ;Source/Engine/Systems/../Components/sprite_component.h:123: for (uint8_t i = 0; i < SPRITE_POOL_SIZE; i++) {
    00000429 F8 03            [12] 1021 	ldhl	sp,	#3
    0000042B 34               [12] 1022 	inc	(hl)
    0000042C 3A               [ 8] 1023 	ld	a, (hl-)
    0000042D 2B               [ 8] 1024 	dec	hl
    0000042E 77               [ 8] 1025 	ld	(hl), a
    0000042F 18 C0            [12] 1026 	jr	00105$
    00000431                       1027 00103$:
                                   1028 ;Source/Engine/Systems/../Components/sprite_component.h:128: return false;
    00000431 AF               [ 4] 1029 	xor	a, a
    00000432                       1030 00107$:
                                   1031 ;Source/Engine/Systems/../Components/sprite_component.h:129: }
    00000432 E8 04            [16] 1032 	add	sp, #4
    00000434 C9               [16] 1033 	ret
                                   1034 ;Source/Engine/Systems/../Components/sprite_component.h:132: static inline bool getSpriteVisible(uint8_t entityID) {
                                   1035 ;	---------------------------------
                                   1036 ; Function getSpriteVisible
                                   1037 ; ---------------------------------
    00000435                       1038 _getSpriteVisible:
    00000435 E8 FC            [16] 1039 	add	sp, #-4
    00000437 F8 02            [12] 1040 	ldhl	sp,	#2
                                   1041 ;Source/Engine/Systems/../Components/sprite_component.h:133: for (uint8_t i = 0; i < SPRITE_POOL_SIZE; i++) {
    00000439 32               [ 8] 1042 	ld	(hl-), a
    0000043A AF               [ 4] 1043 	xor	a, a
    0000043B 22               [ 8] 1044 	ld	(hl+), a
    0000043C 23               [ 8] 1045 	inc	hl
    0000043D 36 00            [12] 1046 	ld	(hl), #0x00
    0000043F                       1047 00105$:
    0000043F F8 03            [12] 1048 	ldhl	sp,	#3
    00000441 7E               [ 8] 1049 	ld	a, (hl)
    00000442 D6 32            [ 8] 1050 	sub	a, #0x32
    00000444 30 39            [12] 1051 	jr	NC, 00103$
                                   1052 ;Source/Engine/Systems/../Components/sprite_component.h:134: if (spriteComponent.entityID[i] == entityID) {
    00000446 11r00r00         [12] 1053 	ld	de, #_spriteComponent
    00000449 6E               [ 8] 1054 	ld	l, (hl)
    0000044A 26 00            [ 8] 1055 	ld	h, #0x00
    0000044C 19               [ 8] 1056 	add	hl, de
    0000044D 4D               [ 4] 1057 	ld	c, l
    0000044E 44               [ 4] 1058 	ld	b, h
    0000044F 0A               [ 8] 1059 	ld	a, (bc)
    00000450 4F               [ 4] 1060 	ld	c, a
    00000451 F8 02            [12] 1061 	ldhl	sp,	#2
    00000453 7E               [ 8] 1062 	ld	a, (hl)
    00000454 91               [ 4] 1063 	sub	a, c
    00000455 20 20            [12] 1064 	jr	NZ, 00106$
                                   1065 ;Source/Engine/Systems/../Components/sprite_component.h:135: return (spriteComponent.flags[i] & SPRITE_VISIBLE) != 0;
    00000457 11r90r01         [12] 1066 	ld	de, #(_spriteComponent + 400)
    0000045A F8 01            [12] 1067 	ldhl	sp,	#1
    0000045C 6E               [ 8] 1068 	ld	l, (hl)
    0000045D 26 00            [ 8] 1069 	ld	h, #0x00
    0000045F 19               [ 8] 1070 	add	hl, de
    00000460 33               [ 8] 1071 	inc	sp
    00000461 33               [ 8] 1072 	inc	sp
    00000462 5D               [ 4] 1073 	ld	e, l
    00000463 54               [ 4] 1074 	ld	d, h
    00000464 D5               [16] 1075 	push	de
    00000465 1A               [ 8] 1076 	ld	a, (de)
    00000466 F8 03            [12] 1077 	ldhl	sp,	#3
    00000468 77               [ 8] 1078 	ld	(hl), a
    00000469 E6 40            [ 8] 1079 	and	a, #0x40
    0000046B 77               [ 8] 1080 	ld	(hl), a
    0000046C D6 01            [ 8] 1081 	sub	a, #0x01
    0000046E 3E 00            [ 8] 1082 	ld	a, #0x00
    00000470 17               [ 4] 1083 	rla
    00000471 77               [ 8] 1084 	ld	(hl), a
    00000472 EE 01            [ 8] 1085 	xor	a, #0x01
    00000474 77               [ 8] 1086 	ld	(hl), a
    00000475 18 09            [12] 1087 	jr	00107$
    00000477                       1088 00106$:
                                   1089 ;Source/Engine/Systems/../Components/sprite_component.h:133: for (uint8_t i = 0; i < SPRITE_POOL_SIZE; i++) {
    00000477 F8 03            [12] 1090 	ldhl	sp,	#3
    00000479 34               [12] 1091 	inc	(hl)
    0000047A 3A               [ 8] 1092 	ld	a, (hl-)
    0000047B 2B               [ 8] 1093 	dec	hl
    0000047C 77               [ 8] 1094 	ld	(hl), a
    0000047D 18 C0            [12] 1095 	jr	00105$
    0000047F                       1096 00103$:
                                   1097 ;Source/Engine/Systems/../Components/sprite_component.h:138: return false;
    0000047F AF               [ 4] 1098 	xor	a, a
    00000480                       1099 00107$:
                                   1100 ;Source/Engine/Systems/../Components/sprite_component.h:139: }
    00000480 E8 04            [16] 1101 	add	sp, #4
    00000482 C9               [16] 1102 	ret
                                   1103 ;Source/Engine/Systems/../Components/sprite_component.h:142: static inline uint8_t getSpriteFlipProps(uint8_t entityID) {
                                   1104 ;	---------------------------------
                                   1105 ; Function getSpriteFlipProps
                                   1106 ; ---------------------------------
    00000483                       1107 _getSpriteFlipProps:
    00000483 E8 FC            [16] 1108 	add	sp, #-4
    00000485 F8 02            [12] 1109 	ldhl	sp,	#2
                                   1110 ;Source/Engine/Systems/../Components/sprite_component.h:143: for (uint8_t i = 0; i < SPRITE_POOL_SIZE; i++) {
    00000487 32               [ 8] 1111 	ld	(hl-), a
    00000488 AF               [ 4] 1112 	xor	a, a
    00000489 22               [ 8] 1113 	ld	(hl+), a
    0000048A 23               [ 8] 1114 	inc	hl
    0000048B 36 00            [12] 1115 	ld	(hl), #0x00
    0000048D                       1116 00105$:
    0000048D F8 03            [12] 1117 	ldhl	sp,	#3
    0000048F 7E               [ 8] 1118 	ld	a, (hl)
    00000490 D6 32            [ 8] 1119 	sub	a, #0x32
    00000492 30 30            [12] 1120 	jr	NC, 00103$
                                   1121 ;Source/Engine/Systems/../Components/sprite_component.h:144: if (spriteComponent.entityID[i] == entityID) {
    00000494 11r00r00         [12] 1122 	ld	de, #_spriteComponent
    00000497 6E               [ 8] 1123 	ld	l, (hl)
    00000498 26 00            [ 8] 1124 	ld	h, #0x00
    0000049A 19               [ 8] 1125 	add	hl, de
    0000049B 4D               [ 4] 1126 	ld	c, l
    0000049C 44               [ 4] 1127 	ld	b, h
    0000049D 0A               [ 8] 1128 	ld	a, (bc)
    0000049E 4F               [ 4] 1129 	ld	c, a
    0000049F F8 02            [12] 1130 	ldhl	sp,	#2
    000004A1 7E               [ 8] 1131 	ld	a, (hl)
    000004A2 91               [ 4] 1132 	sub	a, c
    000004A3 20 17            [12] 1133 	jr	NZ, 00106$
                                   1134 ;Source/Engine/Systems/../Components/sprite_component.h:145: return spriteComponent.flags[i] & (SPRITE_FLIP_X | SPRITE_FLIP_Y);
    000004A5 11r90r01         [12] 1135 	ld	de, #(_spriteComponent + 400)
    000004A8 F8 01            [12] 1136 	ldhl	sp,	#1
    000004AA 6E               [ 8] 1137 	ld	l, (hl)
    000004AB 26 00            [ 8] 1138 	ld	h, #0x00
    000004AD 19               [ 8] 1139 	add	hl, de
    000004AE 33               [ 8] 1140 	inc	sp
    000004AF 33               [ 8] 1141 	inc	sp
    000004B0 5D               [ 4] 1142 	ld	e, l
    000004B1 54               [ 4] 1143 	ld	d, h
    000004B2 D5               [16] 1144 	push	de
    000004B3 1A               [ 8] 1145 	ld	a, (de)
    000004B4 F8 03            [12] 1146 	ldhl	sp,	#3
    000004B6 77               [ 8] 1147 	ld	(hl), a
    000004B7 E6 06            [ 8] 1148 	and	a, #0x06
    000004B9 77               [ 8] 1149 	ld	(hl), a
    000004BA 18 09            [12] 1150 	jr	00107$
    000004BC                       1151 00106$:
                                   1152 ;Source/Engine/Systems/../Components/sprite_component.h:143: for (uint8_t i = 0; i < SPRITE_POOL_SIZE; i++) {
    000004BC F8 03            [12] 1153 	ldhl	sp,	#3
    000004BE 34               [12] 1154 	inc	(hl)
    000004BF 3A               [ 8] 1155 	ld	a, (hl-)
    000004C0 2B               [ 8] 1156 	dec	hl
    000004C1 77               [ 8] 1157 	ld	(hl), a
    000004C2 18 C9            [12] 1158 	jr	00105$
    000004C4                       1159 00103$:
                                   1160 ;Source/Engine/Systems/../Components/sprite_component.h:148: return 0;
    000004C4 AF               [ 4] 1161 	xor	a, a
    000004C5                       1162 00107$:
                                   1163 ;Source/Engine/Systems/../Components/sprite_component.h:149: }
    000004C5 E8 04            [16] 1164 	add	sp, #4
    000004C7 C9               [16] 1165 	ret
                                   1166 ;Source/Engine/Systems/../Components/sprite_component.h:152: static inline LocalSprite getLocalSprite(uint8_t entityID) {
                                   1167 ;	---------------------------------
                                   1168 ; Function getLocalSprite
                                   1169 ; ---------------------------------
    000004C8                       1170 _getLocalSprite:
    000004C8 E8 F1            [16] 1171 	add	sp, #-15
    000004CA F8 0E            [12] 1172 	ldhl	sp,	#14
    000004CC 77               [ 8] 1173 	ld	(hl), a
                                   1174 ;Source/Engine/Systems/../Components/sprite_component.h:153: LocalSprite s = {0};  // Initialize everything to zero / NULL
    000004CD F8 00            [12] 1175 	ldhl	sp,	#0
    000004CF AF               [ 4] 1176 	xor	a, a
    000004D0 22               [ 8] 1177 	ld	(hl+), a
    000004D1 22               [ 8] 1178 	ld	(hl+), a
    000004D2 AF               [ 4] 1179 	xor	a, a
    000004D3 22               [ 8] 1180 	ld	(hl+), a
    000004D4 22               [ 8] 1181 	ld	(hl+), a
    000004D5 AF               [ 4] 1182 	xor	a, a
    000004D6 22               [ 8] 1183 	ld	(hl+), a
    000004D7 22               [ 8] 1184 	ld	(hl+), a
    000004D8 AF               [ 4] 1185 	xor	a, a
    000004D9 22               [ 8] 1186 	ld	(hl+), a
    000004DA 22               [ 8] 1187 	ld	(hl+), a
    000004DB AF               [ 4] 1188 	xor	a, a
    000004DC 22               [ 8] 1189 	ld	(hl+), a
    000004DD 22               [ 8] 1190 	ld	(hl+), a
    000004DE 36 00            [12] 1191 	ld	(hl), #0x00
                                   1192 ;Source/Engine/Systems/../Components/sprite_component.h:154: for (uint8_t i = 0; i < SPRITE_POOL_SIZE; i++) {
    000004E0 F8 0D            [12] 1193 	ldhl	sp,	#13
    000004E2 36 00            [12] 1194 	ld	(hl), #0x00
    000004E4 0E 00            [ 8] 1195 	ld	c, #0x00
    000004E6                       1196 00105$:
    000004E6 79               [ 4] 1197 	ld	a, c
    000004E7 D6 32            [ 8] 1198 	sub	a, #0x32
    000004E9 D2rC3r05         [16] 1199 	jp	NC, 00103$
                                   1200 ;Source/Engine/Systems/../Components/sprite_component.h:155: if (spriteComponent.entityID[i] == entityID) {
    000004EC 21r00r00         [12] 1201 	ld	hl, #_spriteComponent
    000004EF 06 00            [ 8] 1202 	ld	b, #0x00
    000004F1 09               [ 8] 1203 	add	hl, bc
    000004F2 46               [ 8] 1204 	ld	b, (hl)
    000004F3 F8 0E            [12] 1205 	ldhl	sp,	#14
    000004F5 7E               [ 8] 1206 	ld	a, (hl)
    000004F6 90               [ 4] 1207 	sub	a, b
    000004F7 C2rBCr05         [16] 1208 	jp	NZ, 00106$
                                   1209 ;Source/Engine/Systems/../Components/sprite_component.h:156: s.id        = spriteComponent.entityID[i];
    000004FA 11r00r00         [12] 1210 	ld	de, #_spriteComponent
    000004FD F8 0D            [12] 1211 	ldhl	sp,	#13
    000004FF 6E               [ 8] 1212 	ld	l, (hl)
    00000500 26 00            [ 8] 1213 	ld	h, #0x00
    00000502 19               [ 8] 1214 	add	hl, de
    00000503 4D               [ 4] 1215 	ld	c, l
    00000504 44               [ 4] 1216 	ld	b, h
    00000505 0A               [ 8] 1217 	ld	a, (bc)
    00000506 F8 00            [12] 1218 	ldhl	sp,	#0
    00000508 77               [ 8] 1219 	ld	(hl), a
                                   1220 ;Source/Engine/Systems/../Components/sprite_component.h:157: s.width     = spriteComponent.width[i];
    00000509 11rC8r00         [12] 1221 	ld	de, #(_spriteComponent + 200)
    0000050C F8 0D            [12] 1222 	ldhl	sp,	#13
    0000050E 6E               [ 8] 1223 	ld	l, (hl)
    0000050F 26 00            [ 8] 1224 	ld	h, #0x00
    00000511 19               [ 8] 1225 	add	hl, de
    00000512 4D               [ 4] 1226 	ld	c, l
    00000513 44               [ 4] 1227 	ld	b, h
    00000514 0A               [ 8] 1228 	ld	a, (bc)
    00000515 F8 01            [12] 1229 	ldhl	sp,	#1
    00000517 77               [ 8] 1230 	ld	(hl), a
                                   1231 ;Source/Engine/Systems/../Components/sprite_component.h:158: s.height    = spriteComponent.height[i];
    00000518 11rFAr00         [12] 1232 	ld	de, #(_spriteComponent + 250)
    0000051B F8 0D            [12] 1233 	ldhl	sp,	#13
    0000051D 6E               [ 8] 1234 	ld	l, (hl)
    0000051E 26 00            [ 8] 1235 	ld	h, #0x00
    00000520 19               [ 8] 1236 	add	hl, de
    00000521 4D               [ 4] 1237 	ld	c, l
    00000522 44               [ 4] 1238 	ld	b, h
    00000523 0A               [ 8] 1239 	ld	a, (bc)
    00000524 F8 02            [12] 1240 	ldhl	sp,	#2
    00000526 77               [ 8] 1241 	ld	(hl), a
                                   1242 ;Source/Engine/Systems/../Components/sprite_component.h:159: s.offset    = spriteComponent.offset[i];
    00000527 F8 0D            [12] 1243 	ldhl	sp,	#13
    00000529 3A               [ 8] 1244 	ld	a, (hl-)
    0000052A 2B               [ 8] 1245 	dec	hl
    0000052B 87               [ 4] 1246 	add	a, a
    0000052C 77               [ 8] 1247 	ld	(hl), a
    0000052D 11r2Cr01         [12] 1248 	ld	de, #(_spriteComponent + 300)
    00000530 6E               [ 8] 1249 	ld	l, (hl)
    00000531 26 00            [ 8] 1250 	ld	h, #0x00
    00000533 19               [ 8] 1251 	add	hl, de
    00000534 4D               [ 4] 1252 	ld	c, l
    00000535 44               [ 4] 1253 	ld	b, h
    00000536 11 02 00         [12] 1254 	ld	de, #0x0002
    00000539 D5               [16] 1255 	push	de
    0000053A 21 05 00         [12] 1256 	ld	hl, #5
    0000053D 39               [ 8] 1257 	add	hl, sp
    0000053E 5D               [ 4] 1258 	ld	e, l
    0000053F 54               [ 4] 1259 	ld	d, h
    00000540 CDr00r00         [24] 1260 	call	___memcpy
                                   1261 ;Source/Engine/Systems/../Components/sprite_component.h:160: s.flags     = spriteComponent.flags[i];
    00000543 11r90r01         [12] 1262 	ld	de, #(_spriteComponent + 400)
    00000546 F8 0D            [12] 1263 	ldhl	sp,	#13
    00000548 6E               [ 8] 1264 	ld	l, (hl)
    00000549 26 00            [ 8] 1265 	ld	h, #0x00
    0000054B 19               [ 8] 1266 	add	hl, de
    0000054C E5               [16] 1267 	push	hl
    0000054D 7D               [ 4] 1268 	ld	a, l
    0000054E F8 0E            [12] 1269 	ldhl	sp,	#14
    00000550 77               [ 8] 1270 	ld	(hl), a
    00000551 E1               [12] 1271 	pop	hl
    00000552 7C               [ 4] 1272 	ld	a, h
    00000553 F8 0D            [12] 1273 	ldhl	sp,	#13
    00000555 32               [ 8] 1274 	ld	(hl-), a
    00000556 2A               [ 8] 1275 	ld	a, (hl+)
    00000557 5F               [ 4] 1276 	ld	e, a
    00000558 56               [ 8] 1277 	ld	d, (hl)
    00000559 1A               [ 8] 1278 	ld	a, (de)
    0000055A F8 07            [12] 1279 	ldhl	sp,	#7
    0000055C 77               [ 8] 1280 	ld	(hl), a
                                   1281 ;Source/Engine/Systems/../Components/sprite_component.h:161: s.tileData  = spriteComponent.tileData[i];
    0000055D 01r32r00         [12] 1282 	ld	bc, #_spriteComponent + 50
    00000560 F8 0B            [12] 1283 	ldhl	sp,	#11
    00000562 6E               [ 8] 1284 	ld	l, (hl)
    00000563 26 00            [ 8] 1285 	ld	h, #0x00
    00000565 09               [ 8] 1286 	add	hl, bc
    00000566 2A               [ 8] 1287 	ld	a, (hl+)
    00000567 4F               [ 4] 1288 	ld	c, a
    00000568 46               [ 8] 1289 	ld	b, (hl)
    00000569 F8 08            [12] 1290 	ldhl	sp,	#8
    0000056B 79               [ 4] 1291 	ld	a, c
    0000056C 22               [ 8] 1292 	ld	(hl+), a
    0000056D 70               [ 8] 1293 	ld	(hl), b
                                   1294 ;Source/Engine/Systems/../Components/sprite_component.h:162: s.isWorld   = spriteComponent.flags[i] & SPRITE_FLAG_WORLD;
    0000056E F8 0C            [12] 1295 	ldhl	sp,#12
    00000570 2A               [ 8] 1296 	ld	a, (hl+)
    00000571 5F               [ 4] 1297 	ld	e, a
    00000572 56               [ 8] 1298 	ld	d, (hl)
    00000573 1A               [ 8] 1299 	ld	a, (de)
    00000574 E6 01            [ 8] 1300 	and	a, #0x01
    00000576 4F               [ 4] 1301 	ld	c, a
    00000577 F8 05            [12] 1302 	ldhl	sp,	#5
    00000579 71               [ 8] 1303 	ld	(hl), c
                                   1304 ;Source/Engine/Systems/../Components/sprite_component.h:163: s.visible   = spriteComponent.flags[i] & SPRITE_VISIBLE;
    0000057A F8 0C            [12] 1305 	ldhl	sp,#12
    0000057C 2A               [ 8] 1306 	ld	a, (hl+)
    0000057D 5F               [ 4] 1307 	ld	e, a
    0000057E 56               [ 8] 1308 	ld	d, (hl)
    0000057F 1A               [ 8] 1309 	ld	a, (de)
    00000580 07               [ 4] 1310 	rlca
    00000581 07               [ 4] 1311 	rlca
    00000582 E6 01            [ 8] 1312 	and	a, #0x01
    00000584 4F               [ 4] 1313 	ld	c, a
    00000585 F8 06            [12] 1314 	ldhl	sp,	#6
    00000587 71               [ 8] 1315 	ld	(hl), c
                                   1316 ;Source/Engine/Systems/../Components/sprite_component.h:164: s.flipProps = spriteComponent.flags[i] & (SPRITE_FLIP_X | SPRITE_FLIP_Y);
    00000588 F8 0C            [12] 1317 	ldhl	sp,#12
    0000058A 2A               [ 8] 1318 	ld	a, (hl+)
    0000058B 5F               [ 4] 1319 	ld	e, a
    0000058C 56               [ 8] 1320 	ld	d, (hl)
    0000058D 1A               [ 8] 1321 	ld	a, (de)
    0000058E E6 06            [ 8] 1322 	and	a, #0x06
    00000590 F8 0A            [12] 1323 	ldhl	sp,	#10
    00000592 77               [ 8] 1324 	ld	(hl), a
                                   1325 ;Source/Engine/Systems/../Components/sprite_component.h:165: return s;
    00000593 F8 11            [12] 1326 	ldhl	sp,	#17
    00000595 2A               [ 8] 1327 	ld	a, (hl+)
    00000596 4F               [ 4] 1328 	ld	c, a
    00000597 46               [ 8] 1329 	ld	b, (hl)
    00000598 F8 00            [12] 1330 	ldhl	sp,	#0
    0000059A 2A               [ 8] 1331 	ld	a, (hl+)
    0000059B 02               [ 8] 1332 	ld	(bc), a
    0000059C 03               [ 8] 1333 	inc	bc
    0000059D 2A               [ 8] 1334 	ld	a, (hl+)
    0000059E 02               [ 8] 1335 	ld	(bc), a
    0000059F 03               [ 8] 1336 	inc	bc
    000005A0 2A               [ 8] 1337 	ld	a, (hl+)
    000005A1 02               [ 8] 1338 	ld	(bc), a
    000005A2 03               [ 8] 1339 	inc	bc
    000005A3 2A               [ 8] 1340 	ld	a, (hl+)
    000005A4 02               [ 8] 1341 	ld	(bc), a
    000005A5 03               [ 8] 1342 	inc	bc
    000005A6 2A               [ 8] 1343 	ld	a, (hl+)
    000005A7 02               [ 8] 1344 	ld	(bc), a
    000005A8 03               [ 8] 1345 	inc	bc
    000005A9 2A               [ 8] 1346 	ld	a, (hl+)
    000005AA 02               [ 8] 1347 	ld	(bc), a
    000005AB 03               [ 8] 1348 	inc	bc
    000005AC 2A               [ 8] 1349 	ld	a, (hl+)
    000005AD 02               [ 8] 1350 	ld	(bc), a
    000005AE 03               [ 8] 1351 	inc	bc
    000005AF 2A               [ 8] 1352 	ld	a, (hl+)
    000005B0 02               [ 8] 1353 	ld	(bc), a
    000005B1 03               [ 8] 1354 	inc	bc
    000005B2 2A               [ 8] 1355 	ld	a, (hl+)
    000005B3 02               [ 8] 1356 	ld	(bc), a
    000005B4 03               [ 8] 1357 	inc	bc
    000005B5 2A               [ 8] 1358 	ld	a, (hl+)
    000005B6 02               [ 8] 1359 	ld	(bc), a
    000005B7 03               [ 8] 1360 	inc	bc
    000005B8 7E               [ 8] 1361 	ld	a, (hl)
    000005B9 02               [ 8] 1362 	ld	(bc), a
    000005BA 18 32            [12] 1363 	jr	00107$
    000005BC                       1364 00106$:
                                   1365 ;Source/Engine/Systems/../Components/sprite_component.h:154: for (uint8_t i = 0; i < SPRITE_POOL_SIZE; i++) {
    000005BC 0C               [ 4] 1366 	inc	c
    000005BD F8 0D            [12] 1367 	ldhl	sp,	#13
    000005BF 71               [ 8] 1368 	ld	(hl), c
    000005C0 C3rE6r04         [16] 1369 	jp	00105$
    000005C3                       1370 00103$:
                                   1371 ;Source/Engine/Systems/../Components/sprite_component.h:169: s.visible = false;
    000005C3 F8 06            [12] 1372 	ldhl	sp,	#6
    000005C5 36 00            [12] 1373 	ld	(hl), #0x00
                                   1374 ;Source/Engine/Systems/../Components/sprite_component.h:170: return s;
    000005C7 F8 11            [12] 1375 	ldhl	sp,	#17
    000005C9 2A               [ 8] 1376 	ld	a, (hl+)
    000005CA 4F               [ 4] 1377 	ld	c, a
    000005CB 46               [ 8] 1378 	ld	b, (hl)
    000005CC F8 00            [12] 1379 	ldhl	sp,	#0
    000005CE 2A               [ 8] 1380 	ld	a, (hl+)
    000005CF 02               [ 8] 1381 	ld	(bc), a
    000005D0 03               [ 8] 1382 	inc	bc
    000005D1 2A               [ 8] 1383 	ld	a, (hl+)
    000005D2 02               [ 8] 1384 	ld	(bc), a
    000005D3 03               [ 8] 1385 	inc	bc
    000005D4 2A               [ 8] 1386 	ld	a, (hl+)
    000005D5 02               [ 8] 1387 	ld	(bc), a
    000005D6 03               [ 8] 1388 	inc	bc
    000005D7 2A               [ 8] 1389 	ld	a, (hl+)
    000005D8 02               [ 8] 1390 	ld	(bc), a
    000005D9 03               [ 8] 1391 	inc	bc
    000005DA 2A               [ 8] 1392 	ld	a, (hl+)
    000005DB 02               [ 8] 1393 	ld	(bc), a
    000005DC 03               [ 8] 1394 	inc	bc
    000005DD 2A               [ 8] 1395 	ld	a, (hl+)
    000005DE 02               [ 8] 1396 	ld	(bc), a
    000005DF 03               [ 8] 1397 	inc	bc
    000005E0 2A               [ 8] 1398 	ld	a, (hl+)
    000005E1 02               [ 8] 1399 	ld	(bc), a
    000005E2 03               [ 8] 1400 	inc	bc
    000005E3 2A               [ 8] 1401 	ld	a, (hl+)
    000005E4 02               [ 8] 1402 	ld	(bc), a
    000005E5 03               [ 8] 1403 	inc	bc
    000005E6 2A               [ 8] 1404 	ld	a, (hl+)
    000005E7 02               [ 8] 1405 	ld	(bc), a
    000005E8 03               [ 8] 1406 	inc	bc
    000005E9 2A               [ 8] 1407 	ld	a, (hl+)
    000005EA 02               [ 8] 1408 	ld	(bc), a
    000005EB 03               [ 8] 1409 	inc	bc
    000005EC 7E               [ 8] 1410 	ld	a, (hl)
    000005ED 02               [ 8] 1411 	ld	(bc), a
    000005EE                       1412 00107$:
                                   1413 ;Source/Engine/Systems/../Components/sprite_component.h:171: }
    000005EE E8 0F            [16] 1414 	add	sp, #15
    000005F0 E1               [12] 1415 	pop	hl
    000005F1 F1               [12] 1416 	pop	af
    000005F2 E9               [ 4] 1417 	jp	(hl)
                                   1418 ;Source/Engine/Systems/../Components/sprite_component.h:176: static inline void setSpriteZIndex(uint8_t entityID, uint8_t z) {
                                   1419 ;	---------------------------------
                                   1420 ; Function setSpriteZIndex
                                   1421 ; ---------------------------------
    000005F3                       1422 _setSpriteZIndex:
    000005F3 E8 F9            [16] 1423 	add	sp, #-7
    000005F5 F8 06            [12] 1424 	ldhl	sp,	#6
    000005F7 32               [ 8] 1425 	ld	(hl-), a
                                   1426 ;Source/Engine/Systems/../Components/sprite_component.h:177: for (uint8_t i = 0; i < SPRITE_POOL_SIZE; i++) {
    000005F8 7B               [ 4] 1427 	ld	a, e
    000005F9 32               [ 8] 1428 	ld	(hl-), a
    000005FA 2B               [ 8] 1429 	dec	hl
    000005FB AF               [ 4] 1430 	xor	a, a
    000005FC 22               [ 8] 1431 	ld	(hl+), a
    000005FD 77               [ 8] 1432 	ld	(hl), a
    000005FE                       1433 00105$:
    000005FE F8 04            [12] 1434 	ldhl	sp,	#4
    00000600 7E               [ 8] 1435 	ld	a, (hl)
    00000601 D6 32            [ 8] 1436 	sub	a, #0x32
    00000603 30 43            [12] 1437 	jr	NC, 00107$
                                   1438 ;Source/Engine/Systems/../Components/sprite_component.h:178: if (spriteComponent.entityID[i] == entityID) {
    00000605 11r00r00         [12] 1439 	ld	de, #_spriteComponent
    00000608 6E               [ 8] 1440 	ld	l, (hl)
    00000609 26 00            [ 8] 1441 	ld	h, #0x00
    0000060B 19               [ 8] 1442 	add	hl, de
    0000060C 4D               [ 4] 1443 	ld	c, l
    0000060D 44               [ 4] 1444 	ld	b, h
    0000060E 0A               [ 8] 1445 	ld	a, (bc)
    0000060F 4F               [ 4] 1446 	ld	c, a
    00000610 F8 06            [12] 1447 	ldhl	sp,	#6
    00000612 7E               [ 8] 1448 	ld	a, (hl)
    00000613 91               [ 4] 1449 	sub	a, c
    00000614 20 2B            [12] 1450 	jr	NZ, 00106$
                                   1451 ;Source/Engine/Systems/../Components/sprite_component.h:179: spriteComponent.flags[i] = SPRITE_SET_Z(spriteComponent.flags[i], z);
    00000616 11r90r01         [12] 1452 	ld	de, #(_spriteComponent + 400)
    00000619 F8 03            [12] 1453 	ldhl	sp,	#3
    0000061B 6E               [ 8] 1454 	ld	l, (hl)
    0000061C 26 00            [ 8] 1455 	ld	h, #0x00
    0000061E 19               [ 8] 1456 	add	hl, de
    0000061F 33               [ 8] 1457 	inc	sp
    00000620 33               [ 8] 1458 	inc	sp
    00000621 5D               [ 4] 1459 	ld	e, l
    00000622 54               [ 4] 1460 	ld	d, h
    00000623 D5               [16] 1461 	push	de
    00000624 1A               [ 8] 1462 	ld	a, (de)
    00000625 F8 04            [12] 1463 	ldhl	sp,	#4
    00000627 32               [ 8] 1464 	ld	(hl-), a
    00000628 2B               [ 8] 1465 	dec	hl
    00000629 E6 C7            [ 8] 1466 	and	a, #0xc7
    0000062B 77               [ 8] 1467 	ld	(hl), a
    0000062C F8 05            [12] 1468 	ldhl	sp,	#5
    0000062E 3A               [ 8] 1469 	ld	a, (hl-)
    0000062F 87               [ 4] 1470 	add	a, a
    00000630 87               [ 4] 1471 	add	a, a
    00000631 87               [ 4] 1472 	add	a, a
    00000632 E6 38            [ 8] 1473 	and	a, #0x38
    00000634 77               [ 8] 1474 	ld	(hl), a
    00000635 3A               [ 8] 1475 	ld	a, (hl-)
    00000636 2B               [ 8] 1476 	dec	hl
    00000637 B6               [ 8] 1477 	or	a, (hl)
    00000638 23               [ 8] 1478 	inc	hl
    00000639 23               [ 8] 1479 	inc	hl
    0000063A 77               [ 8] 1480 	ld	(hl), a
    0000063B D1               [12] 1481 	pop	de
    0000063C D5               [16] 1482 	push	de
    0000063D 7E               [ 8] 1483 	ld	a, (hl)
    0000063E 12               [ 8] 1484 	ld	(de), a
                                   1485 ;Source/Engine/Systems/../Components/sprite_component.h:180: return;
    0000063F 18 07            [12] 1486 	jr	00107$
    00000641                       1487 00106$:
                                   1488 ;Source/Engine/Systems/../Components/sprite_component.h:177: for (uint8_t i = 0; i < SPRITE_POOL_SIZE; i++) {
    00000641 F8 04            [12] 1489 	ldhl	sp,	#4
    00000643 34               [12] 1490 	inc	(hl)
    00000644 3A               [ 8] 1491 	ld	a, (hl-)
    00000645 77               [ 8] 1492 	ld	(hl), a
    00000646 18 B6            [12] 1493 	jr	00105$
    00000648                       1494 00107$:
                                   1495 ;Source/Engine/Systems/../Components/sprite_component.h:183: }
    00000648 E8 07            [16] 1496 	add	sp, #7
    0000064A C9               [16] 1497 	ret
                                   1498 ;Source/Engine/Systems/../Components/sprite_component.h:186: static inline void setSpriteWorldFlag(uint8_t entityID, bool isWorld) {
                                   1499 ;	---------------------------------
                                   1500 ; Function setSpriteWorldFlag
                                   1501 ; ---------------------------------
    0000064B                       1502 _setSpriteWorldFlag:
    0000064B 3B               [ 8] 1503 	dec	sp
    0000064C F8 00            [12] 1504 	ldhl	sp,	#0
    0000064E 77               [ 8] 1505 	ld	(hl), a
    0000064F 4B               [ 4] 1506 	ld	c, e
                                   1507 ;Source/Engine/Systems/../Components/sprite_component.h:187: for (uint8_t i = 0; i < SPRITE_POOL_SIZE; i++) {
    00000650 06 00            [ 8] 1508 	ld	b, #0x00
    00000652 58               [ 4] 1509 	ld	e, b
    00000653                       1510 00108$:
    00000653 7B               [ 4] 1511 	ld	a, e
    00000654 D6 32            [ 8] 1512 	sub	a, #0x32
    00000656 30 29            [12] 1513 	jr	NC, 00110$
                                   1514 ;Source/Engine/Systems/../Components/sprite_component.h:188: if (spriteComponent.entityID[i] == entityID) {
    00000658 21r00r00         [12] 1515 	ld	hl, #_spriteComponent
    0000065B 16 00            [ 8] 1516 	ld	d, #0x00
    0000065D 19               [ 8] 1517 	add	hl, de
    0000065E 56               [ 8] 1518 	ld	d, (hl)
    0000065F F8 00            [12] 1519 	ldhl	sp,	#0
    00000661 7E               [ 8] 1520 	ld	a, (hl)
    00000662 92               [ 4] 1521 	sub	a, d
    00000663 20 18            [12] 1522 	jr	NZ, 00109$
                                   1523 ;Source/Engine/Systems/../Components/sprite_component.h:190: spriteComponent.flags[i] |= SPRITE_FLAG_WORLD;
    00000665 3Er90            [ 8] 1524 	ld	a, #<((_spriteComponent + 400))
    00000667 80               [ 4] 1525 	add	a, b
    00000668 5F               [ 4] 1526 	ld	e, a
    00000669 3Es01            [ 8] 1527 	ld	a, #>((_spriteComponent + 400))
    0000066B CE 00            [ 8] 1528 	adc	a, #0x00
    0000066D 57               [ 4] 1529 	ld	d, a
    0000066E 1A               [ 8] 1530 	ld	a, (de)
                                   1531 ;Source/Engine/Systems/../Components/sprite_component.h:189: if (isWorld) {
    0000066F CB 41            [ 8] 1532 	bit	0, c
    00000671 28 05            [12] 1533 	jr	Z, 00102$
                                   1534 ;Source/Engine/Systems/../Components/sprite_component.h:190: spriteComponent.flags[i] |= SPRITE_FLAG_WORLD;
    00000673 CB C7            [ 8] 1535 	set	0, a
    00000675 12               [ 8] 1536 	ld	(de), a
    00000676 18 09            [12] 1537 	jr	00110$
    00000678                       1538 00102$:
                                   1539 ;Source/Engine/Systems/../Components/sprite_component.h:192: spriteComponent.flags[i] &= ~SPRITE_FLAG_WORLD;
    00000678 CB 87            [ 8] 1540 	res	0, a
    0000067A 12               [ 8] 1541 	ld	(de), a
                                   1542 ;Source/Engine/Systems/../Components/sprite_component.h:194: return;
    0000067B 18 04            [12] 1543 	jr	00110$
    0000067D                       1544 00109$:
                                   1545 ;Source/Engine/Systems/../Components/sprite_component.h:187: for (uint8_t i = 0; i < SPRITE_POOL_SIZE; i++) {
    0000067D 1C               [ 4] 1546 	inc	e
    0000067E 43               [ 4] 1547 	ld	b, e
    0000067F 18 D2            [12] 1548 	jr	00108$
    00000681                       1549 00110$:
                                   1550 ;Source/Engine/Systems/../Components/sprite_component.h:197: }
    00000681 33               [ 8] 1551 	inc	sp
    00000682 C9               [16] 1552 	ret
                                   1553 ;Source/Engine/Systems/../Components/sprite_component.h:200: static inline void setSpriteFlipX(uint8_t entityID, bool flip) {
                                   1554 ;	---------------------------------
                                   1555 ; Function setSpriteFlipX
                                   1556 ; ---------------------------------
    00000683                       1557 _setSpriteFlipX:
    00000683 3B               [ 8] 1558 	dec	sp
    00000684 F8 00            [12] 1559 	ldhl	sp,	#0
    00000686 77               [ 8] 1560 	ld	(hl), a
    00000687 4B               [ 4] 1561 	ld	c, e
                                   1562 ;Source/Engine/Systems/../Components/sprite_component.h:201: for (uint8_t i = 0; i < SPRITE_POOL_SIZE; i++) {
    00000688 06 00            [ 8] 1563 	ld	b, #0x00
    0000068A 58               [ 4] 1564 	ld	e, b
    0000068B                       1565 00108$:
    0000068B 7B               [ 4] 1566 	ld	a, e
    0000068C D6 32            [ 8] 1567 	sub	a, #0x32
    0000068E 30 29            [12] 1568 	jr	NC, 00110$
                                   1569 ;Source/Engine/Systems/../Components/sprite_component.h:202: if (spriteComponent.entityID[i] == entityID) {
    00000690 21r00r00         [12] 1570 	ld	hl, #_spriteComponent
    00000693 16 00            [ 8] 1571 	ld	d, #0x00
    00000695 19               [ 8] 1572 	add	hl, de
    00000696 56               [ 8] 1573 	ld	d, (hl)
    00000697 F8 00            [12] 1574 	ldhl	sp,	#0
    00000699 7E               [ 8] 1575 	ld	a, (hl)
    0000069A 92               [ 4] 1576 	sub	a, d
    0000069B 20 18            [12] 1577 	jr	NZ, 00109$
                                   1578 ;Source/Engine/Systems/../Components/sprite_component.h:204: spriteComponent.flags[i] |= SPRITE_FLIP_X;
    0000069D 3Er90            [ 8] 1579 	ld	a, #<((_spriteComponent + 400))
    0000069F 80               [ 4] 1580 	add	a, b
    000006A0 5F               [ 4] 1581 	ld	e, a
    000006A1 3Es01            [ 8] 1582 	ld	a, #>((_spriteComponent + 400))
    000006A3 CE 00            [ 8] 1583 	adc	a, #0x00
    000006A5 57               [ 4] 1584 	ld	d, a
    000006A6 1A               [ 8] 1585 	ld	a, (de)
                                   1586 ;Source/Engine/Systems/../Components/sprite_component.h:203: if (flip) {
    000006A7 CB 41            [ 8] 1587 	bit	0, c
    000006A9 28 05            [12] 1588 	jr	Z, 00102$
                                   1589 ;Source/Engine/Systems/../Components/sprite_component.h:204: spriteComponent.flags[i] |= SPRITE_FLIP_X;
    000006AB CB CF            [ 8] 1590 	set	1, a
    000006AD 12               [ 8] 1591 	ld	(de), a
    000006AE 18 09            [12] 1592 	jr	00110$
    000006B0                       1593 00102$:
                                   1594 ;Source/Engine/Systems/../Components/sprite_component.h:206: spriteComponent.flags[i] &= ~SPRITE_FLIP_X;
    000006B0 CB 8F            [ 8] 1595 	res	1, a
    000006B2 12               [ 8] 1596 	ld	(de), a
                                   1597 ;Source/Engine/Systems/../Components/sprite_component.h:208: return;
    000006B3 18 04            [12] 1598 	jr	00110$
    000006B5                       1599 00109$:
                                   1600 ;Source/Engine/Systems/../Components/sprite_component.h:201: for (uint8_t i = 0; i < SPRITE_POOL_SIZE; i++) {
    000006B5 1C               [ 4] 1601 	inc	e
    000006B6 43               [ 4] 1602 	ld	b, e
    000006B7 18 D2            [12] 1603 	jr	00108$
    000006B9                       1604 00110$:
                                   1605 ;Source/Engine/Systems/../Components/sprite_component.h:211: }
    000006B9 33               [ 8] 1606 	inc	sp
    000006BA C9               [16] 1607 	ret
                                   1608 ;Source/Engine/Systems/../Components/sprite_component.h:214: static inline void setSpriteFlipY(uint8_t entityID, bool flip) {
                                   1609 ;	---------------------------------
                                   1610 ; Function setSpriteFlipY
                                   1611 ; ---------------------------------
    000006BB                       1612 _setSpriteFlipY:
    000006BB 3B               [ 8] 1613 	dec	sp
    000006BC F8 00            [12] 1614 	ldhl	sp,	#0
    000006BE 77               [ 8] 1615 	ld	(hl), a
    000006BF 4B               [ 4] 1616 	ld	c, e
                                   1617 ;Source/Engine/Systems/../Components/sprite_component.h:215: for (uint8_t i = 0; i < SPRITE_POOL_SIZE; i++) {
    000006C0 06 00            [ 8] 1618 	ld	b, #0x00
    000006C2 58               [ 4] 1619 	ld	e, b
    000006C3                       1620 00108$:
    000006C3 7B               [ 4] 1621 	ld	a, e
    000006C4 D6 32            [ 8] 1622 	sub	a, #0x32
    000006C6 30 29            [12] 1623 	jr	NC, 00110$
                                   1624 ;Source/Engine/Systems/../Components/sprite_component.h:216: if (spriteComponent.entityID[i] == entityID) {
    000006C8 21r00r00         [12] 1625 	ld	hl, #_spriteComponent
    000006CB 16 00            [ 8] 1626 	ld	d, #0x00
    000006CD 19               [ 8] 1627 	add	hl, de
    000006CE 56               [ 8] 1628 	ld	d, (hl)
    000006CF F8 00            [12] 1629 	ldhl	sp,	#0
    000006D1 7E               [ 8] 1630 	ld	a, (hl)
    000006D2 92               [ 4] 1631 	sub	a, d
    000006D3 20 18            [12] 1632 	jr	NZ, 00109$
                                   1633 ;Source/Engine/Systems/../Components/sprite_component.h:218: spriteComponent.flags[i] |= SPRITE_FLIP_Y;
    000006D5 3Er90            [ 8] 1634 	ld	a, #<((_spriteComponent + 400))
    000006D7 80               [ 4] 1635 	add	a, b
    000006D8 5F               [ 4] 1636 	ld	e, a
    000006D9 3Es01            [ 8] 1637 	ld	a, #>((_spriteComponent + 400))
    000006DB CE 00            [ 8] 1638 	adc	a, #0x00
    000006DD 57               [ 4] 1639 	ld	d, a
    000006DE 1A               [ 8] 1640 	ld	a, (de)
                                   1641 ;Source/Engine/Systems/../Components/sprite_component.h:217: if (flip) {
    000006DF CB 41            [ 8] 1642 	bit	0, c
    000006E1 28 05            [12] 1643 	jr	Z, 00102$
                                   1644 ;Source/Engine/Systems/../Components/sprite_component.h:218: spriteComponent.flags[i] |= SPRITE_FLIP_Y;
    000006E3 CB D7            [ 8] 1645 	set	2, a
    000006E5 12               [ 8] 1646 	ld	(de), a
    000006E6 18 09            [12] 1647 	jr	00110$
    000006E8                       1648 00102$:
                                   1649 ;Source/Engine/Systems/../Components/sprite_component.h:220: spriteComponent.flags[i] &= ~SPRITE_FLIP_Y;
    000006E8 CB 97            [ 8] 1650 	res	2, a
    000006EA 12               [ 8] 1651 	ld	(de), a
                                   1652 ;Source/Engine/Systems/../Components/sprite_component.h:222: return;
    000006EB 18 04            [12] 1653 	jr	00110$
    000006ED                       1654 00109$:
                                   1655 ;Source/Engine/Systems/../Components/sprite_component.h:215: for (uint8_t i = 0; i < SPRITE_POOL_SIZE; i++) {
    000006ED 1C               [ 4] 1656 	inc	e
    000006EE 43               [ 4] 1657 	ld	b, e
    000006EF 18 D2            [12] 1658 	jr	00108$
    000006F1                       1659 00110$:
                                   1660 ;Source/Engine/Systems/../Components/sprite_component.h:225: }
    000006F1 33               [ 8] 1661 	inc	sp
    000006F2 C9               [16] 1662 	ret
                                   1663 ;Source/Engine/Systems/../Components/sprite_component.h:228: static inline void setSpriteVisible(uint8_t entityID, bool visible) {
                                   1664 ;	---------------------------------
                                   1665 ; Function setSpriteVisible
                                   1666 ; ---------------------------------
    000006F3                       1667 _setSpriteVisible:
    000006F3 3B               [ 8] 1668 	dec	sp
    000006F4 F8 00            [12] 1669 	ldhl	sp,	#0
    000006F6 77               [ 8] 1670 	ld	(hl), a
    000006F7 4B               [ 4] 1671 	ld	c, e
                                   1672 ;Source/Engine/Systems/../Components/sprite_component.h:229: for (uint8_t i = 0; i < SPRITE_POOL_SIZE; i++) {
    000006F8 06 00            [ 8] 1673 	ld	b, #0x00
    000006FA 58               [ 4] 1674 	ld	e, b
    000006FB                       1675 00108$:
    000006FB 7B               [ 4] 1676 	ld	a, e
    000006FC D6 32            [ 8] 1677 	sub	a, #0x32
    000006FE 30 29            [12] 1678 	jr	NC, 00110$
                                   1679 ;Source/Engine/Systems/../Components/sprite_component.h:230: if (spriteComponent.entityID[i] == entityID) {
    00000700 21r00r00         [12] 1680 	ld	hl, #_spriteComponent
    00000703 16 00            [ 8] 1681 	ld	d, #0x00
    00000705 19               [ 8] 1682 	add	hl, de
    00000706 56               [ 8] 1683 	ld	d, (hl)
    00000707 F8 00            [12] 1684 	ldhl	sp,	#0
    00000709 7E               [ 8] 1685 	ld	a, (hl)
    0000070A 92               [ 4] 1686 	sub	a, d
    0000070B 20 18            [12] 1687 	jr	NZ, 00109$
                                   1688 ;Source/Engine/Systems/../Components/sprite_component.h:232: spriteComponent.flags[i] |= SPRITE_VISIBLE;
    0000070D 3Er90            [ 8] 1689 	ld	a, #<((_spriteComponent + 400))
    0000070F 80               [ 4] 1690 	add	a, b
    00000710 5F               [ 4] 1691 	ld	e, a
    00000711 3Es01            [ 8] 1692 	ld	a, #>((_spriteComponent + 400))
    00000713 CE 00            [ 8] 1693 	adc	a, #0x00
    00000715 57               [ 4] 1694 	ld	d, a
    00000716 1A               [ 8] 1695 	ld	a, (de)
                                   1696 ;Source/Engine/Systems/../Components/sprite_component.h:231: if (visible) {
    00000717 CB 41            [ 8] 1697 	bit	0, c
    00000719 28 05            [12] 1698 	jr	Z, 00102$
                                   1699 ;Source/Engine/Systems/../Components/sprite_component.h:232: spriteComponent.flags[i] |= SPRITE_VISIBLE;
    0000071B CB F7            [ 8] 1700 	set	6, a
    0000071D 12               [ 8] 1701 	ld	(de), a
    0000071E 18 09            [12] 1702 	jr	00110$
    00000720                       1703 00102$:
                                   1704 ;Source/Engine/Systems/../Components/sprite_component.h:234: spriteComponent.flags[i] &= ~SPRITE_VISIBLE;
    00000720 CB B7            [ 8] 1705 	res	6, a
    00000722 12               [ 8] 1706 	ld	(de), a
                                   1707 ;Source/Engine/Systems/../Components/sprite_component.h:236: return;
    00000723 18 04            [12] 1708 	jr	00110$
    00000725                       1709 00109$:
                                   1710 ;Source/Engine/Systems/../Components/sprite_component.h:229: for (uint8_t i = 0; i < SPRITE_POOL_SIZE; i++) {
    00000725 1C               [ 4] 1711 	inc	e
    00000726 43               [ 4] 1712 	ld	b, e
    00000727 18 D2            [12] 1713 	jr	00108$
    00000729                       1714 00110$:
                                   1715 ;Source/Engine/Systems/../Components/sprite_component.h:239: }
    00000729 33               [ 8] 1716 	inc	sp
    0000072A C9               [16] 1717 	ret
                                   1718 ;Source/Engine/Systems/../Components/sprite_component.h:242: static inline void setSpriteOffset(uint8_t entityID, vec2_i newOffset) {
                                   1719 ;	---------------------------------
                                   1720 ; Function setSpriteOffset
                                   1721 ; ---------------------------------
    0000072B                       1722 _setSpriteOffset:
    0000072B 3B               [ 8] 1723 	dec	sp
    0000072C F8 00            [12] 1724 	ldhl	sp,	#0
    0000072E 77               [ 8] 1725 	ld	(hl), a
                                   1726 ;Source/Engine/Systems/../Components/sprite_component.h:243: for (uint8_t i = 0; i < SPRITE_POOL_SIZE; i++) {
    0000072F 1E 00            [ 8] 1727 	ld	e, #0x00
    00000731 4B               [ 4] 1728 	ld	c, e
    00000732                       1729 00105$:
    00000732 79               [ 4] 1730 	ld	a, c
    00000733 D6 32            [ 8] 1731 	sub	a, #0x32
    00000735 30 28            [12] 1732 	jr	NC, 00107$
                                   1733 ;Source/Engine/Systems/../Components/sprite_component.h:244: if (spriteComponent.entityID[i] == entityID) {
    00000737 21r00r00         [12] 1734 	ld	hl, #_spriteComponent
    0000073A 06 00            [ 8] 1735 	ld	b, #0x00
    0000073C 09               [ 8] 1736 	add	hl, bc
    0000073D 46               [ 8] 1737 	ld	b, (hl)
    0000073E F8 00            [12] 1738 	ldhl	sp,	#0
    00000740 7E               [ 8] 1739 	ld	a, (hl)
    00000741 90               [ 4] 1740 	sub	a, b
    00000742 20 17            [12] 1741 	jr	NZ, 00106$
                                   1742 ;Source/Engine/Systems/../Components/sprite_component.h:245: spriteComponent.offset[i] = newOffset;
    00000744 F8 03            [12] 1743 	ldhl	sp,	#3
    00000746 4D               [ 4] 1744 	ld	c, l
    00000747 44               [ 4] 1745 	ld	b, h
    00000748 7B               [ 4] 1746 	ld	a, e
    00000749 87               [ 4] 1747 	add	a, a
    0000074A C6r2C            [ 8] 1748 	add	a, #<((_spriteComponent + 300))
    0000074C 5F               [ 4] 1749 	ld	e, a
    0000074D 3E 00            [ 8] 1750 	ld	a, #0x00
    0000074F CEs01            [ 8] 1751 	adc	a, #>((_spriteComponent + 300))
    00000751 57               [ 4] 1752 	ld	d, a
    00000752 21 02 00         [12] 1753 	ld	hl, #0x0002
    00000755 E5               [16] 1754 	push	hl
    00000756 CDr00r00         [24] 1755 	call	___memcpy
                                   1756 ;Source/Engine/Systems/../Components/sprite_component.h:246: return;
    00000759 18 04            [12] 1757 	jr	00107$
    0000075B                       1758 00106$:
                                   1759 ;Source/Engine/Systems/../Components/sprite_component.h:243: for (uint8_t i = 0; i < SPRITE_POOL_SIZE; i++) {
    0000075B 0C               [ 4] 1760 	inc	c
    0000075C 59               [ 4] 1761 	ld	e, c
    0000075D 18 D3            [12] 1762 	jr	00105$
    0000075F                       1763 00107$:
                                   1764 ;Source/Engine/Systems/../Components/sprite_component.h:249: }
    0000075F 33               [ 8] 1765 	inc	sp
    00000760 E1               [12] 1766 	pop	hl
    00000761 F1               [12] 1767 	pop	af
    00000762 E9               [ 4] 1768 	jp	(hl)
                                   1769 ;Source/Engine/Systems/../Components/sprite_component.h:252: static inline uint8_t getSpriteWidth(uint8_t entityID) {
                                   1770 ;	---------------------------------
                                   1771 ; Function getSpriteWidth
                                   1772 ; ---------------------------------
    00000763                       1773 _getSpriteWidth:
    00000763 E8 FC            [16] 1774 	add	sp, #-4
    00000765 F8 02            [12] 1775 	ldhl	sp,	#2
                                   1776 ;Source/Engine/Systems/../Components/sprite_component.h:253: for (uint8_t i = 0; i < SPRITE_POOL_SIZE; i++) {
    00000767 32               [ 8] 1777 	ld	(hl-), a
    00000768 AF               [ 4] 1778 	xor	a, a
    00000769 22               [ 8] 1779 	ld	(hl+), a
    0000076A 23               [ 8] 1780 	inc	hl
    0000076B 36 00            [12] 1781 	ld	(hl), #0x00
    0000076D                       1782 00105$:
    0000076D F8 03            [12] 1783 	ldhl	sp,	#3
    0000076F 7E               [ 8] 1784 	ld	a, (hl)
    00000770 D6 32            [ 8] 1785 	sub	a, #0x32
    00000772 30 2D            [12] 1786 	jr	NC, 00103$
                                   1787 ;Source/Engine/Systems/../Components/sprite_component.h:254: if (spriteComponent.entityID[i] == entityID) {
    00000774 11r00r00         [12] 1788 	ld	de, #_spriteComponent
    00000777 6E               [ 8] 1789 	ld	l, (hl)
    00000778 26 00            [ 8] 1790 	ld	h, #0x00
    0000077A 19               [ 8] 1791 	add	hl, de
    0000077B 4D               [ 4] 1792 	ld	c, l
    0000077C 44               [ 4] 1793 	ld	b, h
    0000077D 0A               [ 8] 1794 	ld	a, (bc)
    0000077E 4F               [ 4] 1795 	ld	c, a
    0000077F F8 02            [12] 1796 	ldhl	sp,	#2
    00000781 7E               [ 8] 1797 	ld	a, (hl)
    00000782 91               [ 4] 1798 	sub	a, c
    00000783 20 14            [12] 1799 	jr	NZ, 00106$
                                   1800 ;Source/Engine/Systems/../Components/sprite_component.h:255: return spriteComponent.width[i];
    00000785 11rC8r00         [12] 1801 	ld	de, #(_spriteComponent + 200)
    00000788 F8 01            [12] 1802 	ldhl	sp,	#1
    0000078A 6E               [ 8] 1803 	ld	l, (hl)
    0000078B 26 00            [ 8] 1804 	ld	h, #0x00
    0000078D 19               [ 8] 1805 	add	hl, de
    0000078E 33               [ 8] 1806 	inc	sp
    0000078F 33               [ 8] 1807 	inc	sp
    00000790 5D               [ 4] 1808 	ld	e, l
    00000791 54               [ 4] 1809 	ld	d, h
    00000792 D5               [16] 1810 	push	de
    00000793 1A               [ 8] 1811 	ld	a, (de)
    00000794 F8 03            [12] 1812 	ldhl	sp,	#3
    00000796 77               [ 8] 1813 	ld	(hl), a
    00000797 18 09            [12] 1814 	jr	00107$
    00000799                       1815 00106$:
                                   1816 ;Source/Engine/Systems/../Components/sprite_component.h:253: for (uint8_t i = 0; i < SPRITE_POOL_SIZE; i++) {
    00000799 F8 03            [12] 1817 	ldhl	sp,	#3
    0000079B 34               [12] 1818 	inc	(hl)
    0000079C 3A               [ 8] 1819 	ld	a, (hl-)
    0000079D 2B               [ 8] 1820 	dec	hl
    0000079E 77               [ 8] 1821 	ld	(hl), a
    0000079F 18 CC            [12] 1822 	jr	00105$
    000007A1                       1823 00103$:
                                   1824 ;Source/Engine/Systems/../Components/sprite_component.h:258: return 0;
    000007A1 AF               [ 4] 1825 	xor	a, a
    000007A2                       1826 00107$:
                                   1827 ;Source/Engine/Systems/../Components/sprite_component.h:259: }
    000007A2 E8 04            [16] 1828 	add	sp, #4
    000007A4 C9               [16] 1829 	ret
                                   1830 ;Source/Engine/Systems/../Components/sprite_component.h:262: static inline void setSpriteWidth(uint8_t entityID, uint8_t width) {
                                   1831 ;	---------------------------------
                                   1832 ; Function setSpriteWidth
                                   1833 ; ---------------------------------
    000007A5                       1834 _setSpriteWidth:
    000007A5 E8 FB            [16] 1835 	add	sp, #-5
    000007A7 F8 03            [12] 1836 	ldhl	sp,	#3
    000007A9 32               [ 8] 1837 	ld	(hl-), a
                                   1838 ;Source/Engine/Systems/../Components/sprite_component.h:263: for (uint8_t i = 0; i < SPRITE_POOL_SIZE; i++) {
    000007AA 7B               [ 4] 1839 	ld	a, e
    000007AB 32               [ 8] 1840 	ld	(hl-), a
    000007AC 36 00            [12] 1841 	ld	(hl), #0x00
    000007AE F8 04            [12] 1842 	ldhl	sp,	#4
    000007B0 36 00            [12] 1843 	ld	(hl), #0x00
    000007B2                       1844 00105$:
    000007B2 F8 04            [12] 1845 	ldhl	sp,	#4
    000007B4 7E               [ 8] 1846 	ld	a, (hl)
    000007B5 D6 32            [ 8] 1847 	sub	a, #0x32
    000007B7 30 2E            [12] 1848 	jr	NC, 00107$
                                   1849 ;Source/Engine/Systems/../Components/sprite_component.h:264: if (spriteComponent.entityID[i] == entityID) {
    000007B9 11r00r00         [12] 1850 	ld	de, #_spriteComponent
    000007BC 6E               [ 8] 1851 	ld	l, (hl)
    000007BD 26 00            [ 8] 1852 	ld	h, #0x00
    000007BF 19               [ 8] 1853 	add	hl, de
    000007C0 4D               [ 4] 1854 	ld	c, l
    000007C1 44               [ 4] 1855 	ld	b, h
    000007C2 0A               [ 8] 1856 	ld	a, (bc)
    000007C3 4F               [ 4] 1857 	ld	c, a
    000007C4 F8 03            [12] 1858 	ldhl	sp,	#3
    000007C6 7E               [ 8] 1859 	ld	a, (hl)
    000007C7 91               [ 4] 1860 	sub	a, c
    000007C8 20 14            [12] 1861 	jr	NZ, 00106$
                                   1862 ;Source/Engine/Systems/../Components/sprite_component.h:265: spriteComponent.width[i] = width;
    000007CA 11rC8r00         [12] 1863 	ld	de, #(_spriteComponent + 200)
    000007CD F8 01            [12] 1864 	ldhl	sp,	#1
    000007CF 6E               [ 8] 1865 	ld	l, (hl)
    000007D0 26 00            [ 8] 1866 	ld	h, #0x00
    000007D2 19               [ 8] 1867 	add	hl, de
    000007D3 33               [ 8] 1868 	inc	sp
    000007D4 33               [ 8] 1869 	inc	sp
    000007D5 5D               [ 4] 1870 	ld	e, l
    000007D6 54               [ 4] 1871 	ld	d, h
    000007D7 D5               [16] 1872 	push	de
    000007D8 F8 02            [12] 1873 	ldhl	sp,	#2
    000007DA 7E               [ 8] 1874 	ld	a, (hl)
    000007DB 12               [ 8] 1875 	ld	(de), a
                                   1876 ;Source/Engine/Systems/../Components/sprite_component.h:266: return;
    000007DC 18 09            [12] 1877 	jr	00107$
    000007DE                       1878 00106$:
                                   1879 ;Source/Engine/Systems/../Components/sprite_component.h:263: for (uint8_t i = 0; i < SPRITE_POOL_SIZE; i++) {
    000007DE F8 04            [12] 1880 	ldhl	sp,	#4
    000007E0 34               [12] 1881 	inc	(hl)
    000007E1 7E               [ 8] 1882 	ld	a, (hl)
    000007E2 F8 01            [12] 1883 	ldhl	sp,	#1
    000007E4 77               [ 8] 1884 	ld	(hl), a
    000007E5 18 CB            [12] 1885 	jr	00105$
    000007E7                       1886 00107$:
                                   1887 ;Source/Engine/Systems/../Components/sprite_component.h:269: }
    000007E7 E8 05            [16] 1888 	add	sp, #5
    000007E9 C9               [16] 1889 	ret
                                   1890 ;Source/Engine/Systems/../Components/transform_component.h:16: static inline vec2 getTransformPosition(uint8_t entityID) {
                                   1891 ;	---------------------------------
                                   1892 ; Function getTransformPosition
                                   1893 ; ---------------------------------
    000007EA                       1894 _getTransformPosition:
    000007EA E8 FB            [16] 1895 	add	sp, #-5
    000007EC F8 04            [12] 1896 	ldhl	sp,	#4
    000007EE 77               [ 8] 1897 	ld	(hl), a
                                   1898 ;Source/Engine/Systems/../Components/transform_component.h:17: vec2 result = {0, 0};
    000007EF AF               [ 4] 1899 	xor	a, a
    000007F0 F8 00            [12] 1900 	ldhl	sp,	#0
    000007F2 22               [ 8] 1901 	ld	(hl+), a
    000007F3 22               [ 8] 1902 	ld	(hl+), a
    000007F4 AF               [ 4] 1903 	xor	a, a
    000007F5 22               [ 8] 1904 	ld	(hl+), a
    000007F6 77               [ 8] 1905 	ld	(hl), a
                                   1906 ;Source/Engine/Systems/../Components/transform_component.h:18: for (uint8_t i = 0; i < TRANSFORM_POOL_SIZE; i++) {
    000007F7 0E 00            [ 8] 1907 	ld	c, #0x00
    000007F9 59               [ 4] 1908 	ld	e, c
    000007FA                       1909 00105$:
    000007FA 7B               [ 4] 1910 	ld	a, e
    000007FB D6 64            [ 8] 1911 	sub	a, #0x64
    000007FD 30 3D            [12] 1912 	jr	NC, 00103$
                                   1913 ;Source/Engine/Systems/../Components/transform_component.h:19: if (transformComponent.entityID[i] == entityID) {
    000007FF 21r00r00         [12] 1914 	ld	hl, #_transformComponent
    00000802 16 00            [ 8] 1915 	ld	d, #0x00
    00000804 19               [ 8] 1916 	add	hl, de
    00000805 46               [ 8] 1917 	ld	b, (hl)
    00000806 F8 04            [12] 1918 	ldhl	sp,	#4
    00000808 7E               [ 8] 1919 	ld	a, (hl)
    00000809 90               [ 4] 1920 	sub	a, b
    0000080A 20 2C            [12] 1921 	jr	NZ, 00106$
                                   1922 ;Source/Engine/Systems/../Components/transform_component.h:20: result = transformComponent.position[i];
    0000080C 11r64r00         [12] 1923 	ld	de, #_transformComponent + 100
    0000080F 69               [ 4] 1924 	ld	l, c
    00000810 AF               [ 4] 1925 	xor	a, a
    00000811 67               [ 4] 1926 	ld	h, a
    00000812 29               [ 8] 1927 	add	hl, hl
    00000813 29               [ 8] 1928 	add	hl, hl
    00000814 19               [ 8] 1929 	add	hl, de
    00000815 4D               [ 4] 1930 	ld	c, l
    00000816 44               [ 4] 1931 	ld	b, h
    00000817 21 00 00         [12] 1932 	ld	hl, #0
    0000081A 39               [ 8] 1933 	add	hl, sp
    0000081B 5D               [ 4] 1934 	ld	e, l
    0000081C 54               [ 4] 1935 	ld	d, h
    0000081D 21 04 00         [12] 1936 	ld	hl, #0x0004
    00000820 E5               [16] 1937 	push	hl
    00000821 CDr00r00         [24] 1938 	call	___memcpy
                                   1939 ;Source/Engine/Systems/../Components/transform_component.h:21: return result;
    00000824 F8 07            [12] 1940 	ldhl	sp,	#7
    00000826 2A               [ 8] 1941 	ld	a, (hl+)
    00000827 4F               [ 4] 1942 	ld	c, a
    00000828 46               [ 8] 1943 	ld	b, (hl)
    00000829 F8 00            [12] 1944 	ldhl	sp,	#0
    0000082B 2A               [ 8] 1945 	ld	a, (hl+)
    0000082C 02               [ 8] 1946 	ld	(bc), a
    0000082D 03               [ 8] 1947 	inc	bc
    0000082E 2A               [ 8] 1948 	ld	a, (hl+)
    0000082F 02               [ 8] 1949 	ld	(bc), a
    00000830 03               [ 8] 1950 	inc	bc
    00000831 2A               [ 8] 1951 	ld	a, (hl+)
    00000832 02               [ 8] 1952 	ld	(bc), a
    00000833 03               [ 8] 1953 	inc	bc
    00000834 7E               [ 8] 1954 	ld	a, (hl)
    00000835 02               [ 8] 1955 	ld	(bc), a
    00000836 18 16            [12] 1956 	jr	00107$
    00000838                       1957 00106$:
                                   1958 ;Source/Engine/Systems/../Components/transform_component.h:18: for (uint8_t i = 0; i < TRANSFORM_POOL_SIZE; i++) {
    00000838 1C               [ 4] 1959 	inc	e
    00000839 4B               [ 4] 1960 	ld	c, e
    0000083A 18 BE            [12] 1961 	jr	00105$
    0000083C                       1962 00103$:
                                   1963 ;Source/Engine/Systems/../Components/transform_component.h:24: return result;
    0000083C F8 07            [12] 1964 	ldhl	sp,	#7
    0000083E 2A               [ 8] 1965 	ld	a, (hl+)
    0000083F 4F               [ 4] 1966 	ld	c, a
    00000840 46               [ 8] 1967 	ld	b, (hl)
    00000841 F8 00            [12] 1968 	ldhl	sp,	#0
    00000843 2A               [ 8] 1969 	ld	a, (hl+)
    00000844 02               [ 8] 1970 	ld	(bc), a
    00000845 03               [ 8] 1971 	inc	bc
    00000846 2A               [ 8] 1972 	ld	a, (hl+)
    00000847 02               [ 8] 1973 	ld	(bc), a
    00000848 03               [ 8] 1974 	inc	bc
    00000849 2A               [ 8] 1975 	ld	a, (hl+)
    0000084A 02               [ 8] 1976 	ld	(bc), a
    0000084B 03               [ 8] 1977 	inc	bc
    0000084C 7E               [ 8] 1978 	ld	a, (hl)
    0000084D 02               [ 8] 1979 	ld	(bc), a
    0000084E                       1980 00107$:
                                   1981 ;Source/Engine/Systems/../Components/transform_component.h:25: }
    0000084E E8 05            [16] 1982 	add	sp, #5
    00000850 E1               [12] 1983 	pop	hl
    00000851 F1               [12] 1984 	pop	af
    00000852 E9               [ 4] 1985 	jp	(hl)
                                   1986 ;Source/Engine/Systems/render_sprite_system.c:11: void RenderSprites(void) {
                                   1987 ;	---------------------------------
                                   1988 ; Function RenderSprites
                                   1989 ; ---------------------------------
    00000853                       1990 _RenderSprites::
    00000853 E8 C7            [16] 1991 	add	sp, #-57
                                   1992 ;Source/Engine/Systems/render_sprite_system.c:19: uint8_t spriteOAMIndex = 0;
    00000855 F8 35            [12] 1993 	ldhl	sp,	#53
    00000857 36 00            [12] 1994 	ld	(hl), #0x00
                                   1995 ;Source/Engine/Systems/render_sprite_system.c:25: spriteCount = sortEntitiesByZIndex();
    00000859 CDrA5r0B         [24] 1996 	call	_sortEntitiesByZIndex
    0000085C F8 2F            [12] 1997 	ldhl	sp,	#47
    0000085E 77               [ 8] 1998 	ld	(hl), a
                                   1999 ;Source/Engine/Systems/render_sprite_system.c:28: for (uint8_t i = 0; i < spriteCount; i++) {
    0000085F F8 36            [12] 2000 	ldhl	sp,	#54
    00000861 36 00            [12] 2001 	ld	(hl), #0x00
    00000863                       2002 00134$:
    00000863 F8 36            [12] 2003 	ldhl	sp,	#54
    00000865 7E               [ 8] 2004 	ld	a, (hl)
    00000866 F8 2F            [12] 2005 	ldhl	sp,	#47
    00000868 96               [ 8] 2006 	sub	a, (hl)
    00000869 D2r91r0B         [16] 2007 	jp	NC, 00136$
                                   2008 ;Source/Engine/Systems/render_sprite_system.c:29: id = spriteIDByZIndex[i];
    0000086C 11r00r00         [12] 2009 	ld	de, #_spriteIDByZIndex
    0000086F F8 36            [12] 2010 	ldhl	sp,	#54
    00000871 6E               [ 8] 2011 	ld	l, (hl)
    00000872 26 00            [ 8] 2012 	ld	h, #0x00
    00000874 19               [ 8] 2013 	add	hl, de
    00000875 4D               [ 4] 2014 	ld	c, l
    00000876 44               [ 4] 2015 	ld	b, h
    00000877 0A               [ 8] 2016 	ld	a, (bc)
    00000878 F8 32            [12] 2017 	ldhl	sp,	#50
    0000087A 77               [ 8] 2018 	ld	(hl), a
                                   2019 ;Source/Engine/Systems/render_sprite_system.c:30: e = getEntityById(id);
    0000087B 7E               [ 8] 2020 	ld	a, (hl)
    0000087C CDr00r00         [24] 2021 	call	_getEntityById
    0000087F F8 33            [12] 2022 	ldhl	sp,	#51
    00000881 79               [ 4] 2023 	ld	a, c
    00000882 22               [ 8] 2024 	ld	(hl+), a
    00000883 70               [ 8] 2025 	ld	(hl), b
                                   2026 ;Source/Engine/Systems/render_sprite_system.c:32: s = getLocalSprite(id);
    00000884 F8 32            [12] 2027 	ldhl	sp,	#50
    00000886 7E               [ 8] 2028 	ld	a, (hl)
    00000887 F8 38            [12] 2029 	ldhl	sp,	#56
    00000889 77               [ 8] 2030 	ld	(hl), a
                                   2031 ;Source/Engine/Systems/../Components/sprite_component.h:153: LocalSprite s = {0};  // Initialize everything to zero / NULL
    0000088A F8 00            [12] 2032 	ldhl	sp,	#0
    0000088C AF               [ 4] 2033 	xor	a, a
    0000088D 22               [ 8] 2034 	ld	(hl+), a
    0000088E 22               [ 8] 2035 	ld	(hl+), a
    0000088F AF               [ 4] 2036 	xor	a, a
    00000890 22               [ 8] 2037 	ld	(hl+), a
    00000891 22               [ 8] 2038 	ld	(hl+), a
    00000892 AF               [ 4] 2039 	xor	a, a
    00000893 22               [ 8] 2040 	ld	(hl+), a
    00000894 22               [ 8] 2041 	ld	(hl+), a
    00000895 AF               [ 4] 2042 	xor	a, a
    00000896 22               [ 8] 2043 	ld	(hl+), a
    00000897 22               [ 8] 2044 	ld	(hl+), a
    00000898 AF               [ 4] 2045 	xor	a, a
    00000899 22               [ 8] 2046 	ld	(hl+), a
    0000089A 22               [ 8] 2047 	ld	(hl+), a
    0000089B 36 00            [12] 2048 	ld	(hl), #0x00
                                   2049 ;Source/Engine/Systems/../Components/sprite_component.h:154: for (uint8_t i = 0; i < SPRITE_POOL_SIZE; i++) {
    0000089D F8 37            [12] 2050 	ldhl	sp,	#55
    0000089F 36 00            [12] 2051 	ld	(hl), #0x00
    000008A1 0E 00            [ 8] 2052 	ld	c, #0x00
    000008A3                       2053 00122$:
    000008A3 79               [ 4] 2054 	ld	a, c
    000008A4 D6 32            [ 8] 2055 	sub	a, #0x32
    000008A6 D2r63r09         [16] 2056 	jp	NC, 00112$
                                   2057 ;Source/Engine/Systems/../Components/sprite_component.h:155: if (spriteComponent.entityID[i] == entityID) {
    000008A9 21r00r00         [12] 2058 	ld	hl, #_spriteComponent
    000008AC 06 00            [ 8] 2059 	ld	b, #0x00
    000008AE 09               [ 8] 2060 	add	hl, bc
    000008AF 46               [ 8] 2061 	ld	b, (hl)
    000008B0 F8 38            [12] 2062 	ldhl	sp,	#56
    000008B2 7E               [ 8] 2063 	ld	a, (hl)
    000008B3 90               [ 4] 2064 	sub	a, b
    000008B4 C2r5Cr09         [16] 2065 	jp	NZ, 00123$
                                   2066 ;Source/Engine/Systems/../Components/sprite_component.h:156: s.id        = spriteComponent.entityID[i];
    000008B7 11r00r00         [12] 2067 	ld	de, #_spriteComponent
    000008BA F8 37            [12] 2068 	ldhl	sp,	#55
    000008BC 6E               [ 8] 2069 	ld	l, (hl)
    000008BD 26 00            [ 8] 2070 	ld	h, #0x00
    000008BF 19               [ 8] 2071 	add	hl, de
    000008C0 4D               [ 4] 2072 	ld	c, l
    000008C1 44               [ 4] 2073 	ld	b, h
    000008C2 0A               [ 8] 2074 	ld	a, (bc)
    000008C3 F8 00            [12] 2075 	ldhl	sp,	#0
    000008C5 77               [ 8] 2076 	ld	(hl), a
                                   2077 ;Source/Engine/Systems/../Components/sprite_component.h:157: s.width     = spriteComponent.width[i];
    000008C6 11rC8r00         [12] 2078 	ld	de, #(_spriteComponent + 200)
    000008C9 F8 37            [12] 2079 	ldhl	sp,	#55
    000008CB 6E               [ 8] 2080 	ld	l, (hl)
    000008CC 26 00            [ 8] 2081 	ld	h, #0x00
    000008CE 19               [ 8] 2082 	add	hl, de
    000008CF 4D               [ 4] 2083 	ld	c, l
    000008D0 44               [ 4] 2084 	ld	b, h
    000008D1 0A               [ 8] 2085 	ld	a, (bc)
    000008D2 F8 01            [12] 2086 	ldhl	sp,	#1
    000008D4 77               [ 8] 2087 	ld	(hl), a
                                   2088 ;Source/Engine/Systems/../Components/sprite_component.h:158: s.height    = spriteComponent.height[i];
    000008D5 11rFAr00         [12] 2089 	ld	de, #(_spriteComponent + 250)
    000008D8 F8 37            [12] 2090 	ldhl	sp,	#55
    000008DA 6E               [ 8] 2091 	ld	l, (hl)
    000008DB 26 00            [ 8] 2092 	ld	h, #0x00
    000008DD 19               [ 8] 2093 	add	hl, de
    000008DE 4D               [ 4] 2094 	ld	c, l
    000008DF 44               [ 4] 2095 	ld	b, h
    000008E0 0A               [ 8] 2096 	ld	a, (bc)
    000008E1 F8 02            [12] 2097 	ldhl	sp,	#2
    000008E3 77               [ 8] 2098 	ld	(hl), a
                                   2099 ;Source/Engine/Systems/../Components/sprite_component.h:159: s.offset    = spriteComponent.offset[i];
    000008E4 F8 37            [12] 2100 	ldhl	sp,	#55
    000008E6 2A               [ 8] 2101 	ld	a, (hl+)
    000008E7 87               [ 4] 2102 	add	a, a
    000008E8 77               [ 8] 2103 	ld	(hl), a
    000008E9 11r2Cr01         [12] 2104 	ld	de, #(_spriteComponent + 300)
    000008EC 6E               [ 8] 2105 	ld	l, (hl)
    000008ED 26 00            [ 8] 2106 	ld	h, #0x00
    000008EF 19               [ 8] 2107 	add	hl, de
    000008F0 4D               [ 4] 2108 	ld	c, l
    000008F1 44               [ 4] 2109 	ld	b, h
    000008F2 21 03 00         [12] 2110 	ld	hl, #3
    000008F5 39               [ 8] 2111 	add	hl, sp
    000008F6 11 02 00         [12] 2112 	ld	de, #0x0002
    000008F9 D5               [16] 2113 	push	de
    000008FA 5D               [ 4] 2114 	ld	e, l
    000008FB 54               [ 4] 2115 	ld	d, h
    000008FC CDr00r00         [24] 2116 	call	___memcpy
                                   2117 ;Source/Engine/Systems/../Components/sprite_component.h:160: s.flags     = spriteComponent.flags[i];
    000008FF 11r90r01         [12] 2118 	ld	de, #(_spriteComponent + 400)
    00000902 F8 37            [12] 2119 	ldhl	sp,	#55
    00000904 6E               [ 8] 2120 	ld	l, (hl)
    00000905 26 00            [ 8] 2121 	ld	h, #0x00
    00000907 19               [ 8] 2122 	add	hl, de
    00000908 4D               [ 4] 2123 	ld	c, l
    00000909 44               [ 4] 2124 	ld	b, h
    0000090A 0A               [ 8] 2125 	ld	a, (bc)
    0000090B F8 07            [12] 2126 	ldhl	sp,	#7
    0000090D 77               [ 8] 2127 	ld	(hl), a
                                   2128 ;Source/Engine/Systems/../Components/sprite_component.h:161: s.tileData  = spriteComponent.tileData[i];
    0000090E F8 38            [12] 2129 	ldhl	sp,	#56
    00000910 5E               [ 8] 2130 	ld	e, (hl)
    00000911 16 00            [ 8] 2131 	ld	d, #0x00
    00000913 21r32r00         [12] 2132 	ld	hl, #(_spriteComponent + 50)
    00000916 19               [ 8] 2133 	add	hl, de
    00000917 E5               [16] 2134 	push	hl
    00000918 7D               [ 4] 2135 	ld	a, l
    00000919 F8 39            [12] 2136 	ldhl	sp,	#57
    0000091B 77               [ 8] 2137 	ld	(hl), a
    0000091C E1               [12] 2138 	pop	hl
    0000091D 7C               [ 4] 2139 	ld	a, h
    0000091E F8 38            [12] 2140 	ldhl	sp,	#56
    00000920 32               [ 8] 2141 	ld	(hl-), a
    00000921 2A               [ 8] 2142 	ld	a, (hl+)
    00000922 5F               [ 4] 2143 	ld	e, a
    00000923 56               [ 8] 2144 	ld	d, (hl)
    00000924 1A               [ 8] 2145 	ld	a, (de)
    00000925 6F               [ 4] 2146 	ld	l, a
    00000926 13               [ 8] 2147 	inc	de
    00000927 1A               [ 8] 2148 	ld	a, (de)
    00000928 67               [ 4] 2149 	ld	h, a
    00000929 E5               [16] 2150 	push	hl
    0000092A 7D               [ 4] 2151 	ld	a, l
    0000092B F8 0A            [12] 2152 	ldhl	sp,	#10
    0000092D 77               [ 8] 2153 	ld	(hl), a
    0000092E E1               [12] 2154 	pop	hl
    0000092F 7C               [ 4] 2155 	ld	a, h
    00000930 F8 09            [12] 2156 	ldhl	sp,	#9
    00000932 77               [ 8] 2157 	ld	(hl), a
                                   2158 ;Source/Engine/Systems/../Components/sprite_component.h:162: s.isWorld   = spriteComponent.flags[i] & SPRITE_FLAG_WORLD;
    00000933 0A               [ 8] 2159 	ld	a, (bc)
    00000934 E6 01            [ 8] 2160 	and	a, #0x01
    00000936 F8 05            [12] 2161 	ldhl	sp,	#5
    00000938 77               [ 8] 2162 	ld	(hl), a
                                   2163 ;Source/Engine/Systems/../Components/sprite_component.h:163: s.visible   = spriteComponent.flags[i] & SPRITE_VISIBLE;
    00000939 0A               [ 8] 2164 	ld	a, (bc)
    0000093A 07               [ 4] 2165 	rlca
    0000093B 07               [ 4] 2166 	rlca
    0000093C E6 01            [ 8] 2167 	and	a, #0x01
    0000093E F8 06            [12] 2168 	ldhl	sp,	#6
    00000940 77               [ 8] 2169 	ld	(hl), a
                                   2170 ;Source/Engine/Systems/../Components/sprite_component.h:164: s.flipProps = spriteComponent.flags[i] & (SPRITE_FLIP_X | SPRITE_FLIP_Y);
    00000941 0A               [ 8] 2171 	ld	a, (bc)
    00000942 E6 06            [ 8] 2172 	and	a, #0x06
    00000944 F8 0A            [12] 2173 	ldhl	sp,	#10
    00000946 77               [ 8] 2174 	ld	(hl), a
                                   2175 ;Source/Engine/Systems/../Components/sprite_component.h:165: return s;
    00000947 21 00 00         [12] 2176 	ld	hl, #0
    0000094A 39               [ 8] 2177 	add	hl, sp
    0000094B 4D               [ 4] 2178 	ld	c, l
    0000094C 44               [ 4] 2179 	ld	b, h
    0000094D 21 1C 00         [12] 2180 	ld	hl, #28
    00000950 39               [ 8] 2181 	add	hl, sp
    00000951 11 0B 00         [12] 2182 	ld	de, #0x000b
    00000954 D5               [16] 2183 	push	de
    00000955 5D               [ 4] 2184 	ld	e, l
    00000956 54               [ 4] 2185 	ld	d, h
    00000957 CDr00r00         [24] 2186 	call	___memcpy
    0000095A 18 1D            [12] 2187 	jr	00113$
    0000095C                       2188 00123$:
                                   2189 ;Source/Engine/Systems/../Components/sprite_component.h:154: for (uint8_t i = 0; i < SPRITE_POOL_SIZE; i++) {
    0000095C 0C               [ 4] 2190 	inc	c
    0000095D F8 37            [12] 2191 	ldhl	sp,	#55
    0000095F 71               [ 8] 2192 	ld	(hl), c
    00000960 C3rA3r08         [16] 2193 	jp	00122$
    00000963                       2194 00112$:
                                   2195 ;Source/Engine/Systems/../Components/sprite_component.h:169: s.visible = false;
    00000963 F8 06            [12] 2196 	ldhl	sp,	#6
                                   2197 ;Source/Engine/Systems/../Components/sprite_component.h:170: return s;
    00000965 11 0B 00         [12] 2198 	ld	de, #0x000b
    00000968 72               [ 8] 2199 	ld	(hl), d
    00000969 D5               [16] 2200 	push	de
    0000096A 21 02 00         [12] 2201 	ld	hl, #2
    0000096D 39               [ 8] 2202 	add	hl, sp
    0000096E 4D               [ 4] 2203 	ld	c, l
    0000096F 44               [ 4] 2204 	ld	b, h
    00000970 21 1E 00         [12] 2205 	ld	hl, #30
    00000973 39               [ 8] 2206 	add	hl, sp
    00000974 5D               [ 4] 2207 	ld	e, l
    00000975 54               [ 4] 2208 	ld	d, h
    00000976 CDr00r00         [24] 2209 	call	___memcpy
                                   2210 ;Source/Engine/Systems/render_sprite_system.c:32: s = getLocalSprite(id);
    00000979                       2211 00113$:
    00000979 11 0B 00         [12] 2212 	ld	de, #0x000b
    0000097C D5               [16] 2213 	push	de
    0000097D 21 1E 00         [12] 2214 	ld	hl, #30
    00000980 39               [ 8] 2215 	add	hl, sp
    00000981 4D               [ 4] 2216 	ld	c, l
    00000982 44               [ 4] 2217 	ld	b, h
    00000983 21 13 00         [12] 2218 	ld	hl, #19
    00000986 39               [ 8] 2219 	add	hl, sp
    00000987 5D               [ 4] 2220 	ld	e, l
    00000988 54               [ 4] 2221 	ld	d, h
    00000989 CDr00r00         [24] 2222 	call	___memcpy
                                   2223 ;Source/Engine/Systems/render_sprite_system.c:34: if (id != 0 && s.visible &&
    0000098C F8 32            [12] 2224 	ldhl	sp,	#50
    0000098E 7E               [ 8] 2225 	ld	a, (hl)
    0000098F B7               [ 4] 2226 	or	a, a
    00000990 CAr8Br0B         [16] 2227 	jp	Z, 00135$
    00000993 F8 17            [12] 2228 	ldhl	sp,	#23
    00000995 4E               [ 8] 2229 	ld	c, (hl)
    00000996 CB 41            [ 8] 2230 	bit	0, c
    00000998 CAr8Br0B         [16] 2231 	jp	Z, 00135$
                                   2232 ;Source/Engine/Systems/render_sprite_system.c:35: EntityHasComponent(e, TRANSFORM_COMPONENT)) {
    0000099B 01 01 00         [12] 2233 	ld	bc, #0x0001
    0000099E F8 33            [12] 2234 	ldhl	sp,	#51
    000009A0 2A               [ 8] 2235 	ld	a, (hl+)
    000009A1 5F               [ 4] 2236 	ld	e, a
    000009A2 56               [ 8] 2237 	ld	d, (hl)
    000009A3 CDr00r00         [24] 2238 	call	_EntityHasComponent
    000009A6 4F               [ 4] 2239 	ld	c, a
    000009A7 CB 41            [ 8] 2240 	bit	0, c
    000009A9 CAr8Br0B         [16] 2241 	jp	Z, 00135$
                                   2242 ;Source/Engine/Systems/render_sprite_system.c:38: position = getTransformPosition(id);
    000009AC F8 32            [12] 2243 	ldhl	sp,	#50
    000009AE 7E               [ 8] 2244 	ld	a, (hl)
    000009AF F8 37            [12] 2245 	ldhl	sp,	#55
    000009B1 77               [ 8] 2246 	ld	(hl), a
                                   2247 ;Source/Engine/Systems/../Components/transform_component.h:17: vec2 result = {0, 0};
    000009B2 AF               [ 4] 2248 	xor	a, a
    000009B3 F8 2B            [12] 2249 	ldhl	sp,	#43
    000009B5 22               [ 8] 2250 	ld	(hl+), a
    000009B6 22               [ 8] 2251 	ld	(hl+), a
    000009B7 AF               [ 4] 2252 	xor	a, a
    000009B8 22               [ 8] 2253 	ld	(hl+), a
    000009B9 77               [ 8] 2254 	ld	(hl), a
                                   2255 ;Source/Engine/Systems/../Components/transform_component.h:18: for (uint8_t i = 0; i < TRANSFORM_POOL_SIZE; i++) {
    000009BA F8 34            [12] 2256 	ldhl	sp,	#52
    000009BC 36 00            [12] 2257 	ld	(hl), #0x00
    000009BE F8 38            [12] 2258 	ldhl	sp,	#56
    000009C0 36 00            [12] 2259 	ld	(hl), #0x00
    000009C2                       2260 00125$:
    000009C2 F8 38            [12] 2261 	ldhl	sp,	#56
    000009C4 7E               [ 8] 2262 	ld	a, (hl)
    000009C5 D6 64            [ 8] 2263 	sub	a, #0x64
    000009C7 30 48            [12] 2264 	jr	NC, 00116$
                                   2265 ;Source/Engine/Systems/../Components/transform_component.h:19: if (transformComponent.entityID[i] == entityID) {
    000009C9 11r00r00         [12] 2266 	ld	de, #_transformComponent
    000009CC 6E               [ 8] 2267 	ld	l, (hl)
    000009CD 26 00            [ 8] 2268 	ld	h, #0x00
    000009CF 19               [ 8] 2269 	add	hl, de
    000009D0 4D               [ 4] 2270 	ld	c, l
    000009D1 44               [ 4] 2271 	ld	b, h
    000009D2 0A               [ 8] 2272 	ld	a, (bc)
    000009D3 4F               [ 4] 2273 	ld	c, a
    000009D4 F8 37            [12] 2274 	ldhl	sp,	#55
    000009D6 7E               [ 8] 2275 	ld	a, (hl)
    000009D7 91               [ 4] 2276 	sub	a, c
    000009D8 20 2E            [12] 2277 	jr	NZ, 00126$
                                   2278 ;Source/Engine/Systems/../Components/transform_component.h:20: result = transformComponent.position[i];
    000009DA F8 34            [12] 2279 	ldhl	sp,	#52
    000009DC 4E               [ 8] 2280 	ld	c, (hl)
    000009DD AF               [ 4] 2281 	xor	a, a
    000009DE 69               [ 4] 2282 	ld	l, c
    000009DF 67               [ 4] 2283 	ld	h, a
    000009E0 29               [ 8] 2284 	add	hl, hl
    000009E1 29               [ 8] 2285 	add	hl, hl
    000009E2 11r64r00         [12] 2286 	ld	de, #(_transformComponent + 100)
    000009E5 19               [ 8] 2287 	add	hl, de
    000009E6 4D               [ 4] 2288 	ld	c, l
    000009E7 44               [ 4] 2289 	ld	b, h
    000009E8 21 2B 00         [12] 2290 	ld	hl, #43
    000009EB 39               [ 8] 2291 	add	hl, sp
    000009EC 5D               [ 4] 2292 	ld	e, l
    000009ED 54               [ 4] 2293 	ld	d, h
    000009EE D5               [16] 2294 	push	de
    000009EF 21 04 00         [12] 2295 	ld	hl, #0x0004
    000009F2 E5               [16] 2296 	push	hl
    000009F3 CDr00r00         [24] 2297 	call	___memcpy
    000009F6 D1               [12] 2298 	pop	de
                                   2299 ;Source/Engine/Systems/render_sprite_system.c:21: uint8_t tileDataIndex = 0;
    000009F7 21 27 00         [12] 2300 	ld	hl, #39
    000009FA 39               [ 8] 2301 	add	hl, sp
    000009FB 01 04 00         [12] 2302 	ld	bc, #0x0004
    000009FE C5               [16] 2303 	push	bc
    000009FF 4B               [ 4] 2304 	ld	c, e
    00000A00 42               [ 4] 2305 	ld	b, d
    00000A01 5D               [ 4] 2306 	ld	e, l
    00000A02 54               [ 4] 2307 	ld	d, h
    00000A03 CDr00r00         [24] 2308 	call	___memcpy
    00000A06 18 1C            [12] 2309 	jr	00117$
    00000A08                       2310 00126$:
                                   2311 ;Source/Engine/Systems/../Components/transform_component.h:18: for (uint8_t i = 0; i < TRANSFORM_POOL_SIZE; i++) {
    00000A08 F8 38            [12] 2312 	ldhl	sp,	#56
    00000A0A 34               [12] 2313 	inc	(hl)
    00000A0B 7E               [ 8] 2314 	ld	a, (hl)
    00000A0C F8 34            [12] 2315 	ldhl	sp,	#52
    00000A0E 77               [ 8] 2316 	ld	(hl), a
    00000A0F 18 B1            [12] 2317 	jr	00125$
    00000A11                       2318 00116$:
                                   2319 ;Source/Engine/Systems/../Components/transform_component.h:24: return result;
    00000A11 21 2B 00         [12] 2320 	ld	hl, #43
    00000A14 39               [ 8] 2321 	add	hl, sp
    00000A15 11 04 00         [12] 2322 	ld	de, #0x0004
    00000A18 D5               [16] 2323 	push	de
    00000A19 4D               [ 4] 2324 	ld	c, l
    00000A1A 44               [ 4] 2325 	ld	b, h
    00000A1B 21 29 00         [12] 2326 	ld	hl, #41
    00000A1E 39               [ 8] 2327 	add	hl, sp
    00000A1F 5D               [ 4] 2328 	ld	e, l
    00000A20 54               [ 4] 2329 	ld	d, h
    00000A21 CDr00r00         [24] 2330 	call	___memcpy
                                   2331 ;Source/Engine/Systems/render_sprite_system.c:38: position = getTransformPosition(id);
    00000A24                       2332 00117$:
    00000A24 11 04 00         [12] 2333 	ld	de, #0x0004
    00000A27 D5               [16] 2334 	push	de
    00000A28 21 29 00         [12] 2335 	ld	hl, #41
    00000A2B 39               [ 8] 2336 	add	hl, sp
    00000A2C 4D               [ 4] 2337 	ld	c, l
    00000A2D 44               [ 4] 2338 	ld	b, h
    00000A2E 21 0D 00         [12] 2339 	ld	hl, #13
    00000A31 39               [ 8] 2340 	add	hl, sp
    00000A32 5D               [ 4] 2341 	ld	e, l
    00000A33 54               [ 4] 2342 	ld	d, h
    00000A34 CDr00r00         [24] 2343 	call	___memcpy
                                   2344 ;Source/Engine/Systems/render_sprite_system.c:41: int16_t screenX = s.isWorld ? (TO_INT(position.x) - camera.x + s.offset.x) : position.x + s.offset.x;
    00000A37 F8 16            [12] 2345 	ldhl	sp,	#22
    00000A39 4E               [ 8] 2346 	ld	c, (hl)
    00000A3A F8 0B            [12] 2347 	ldhl	sp,	#11
    00000A3C 7E               [ 8] 2348 	ld	a, (hl)
    00000A3D F8 37            [12] 2349 	ldhl	sp,	#55
    00000A3F 77               [ 8] 2350 	ld	(hl), a
    00000A40 F8 0C            [12] 2351 	ldhl	sp,	#12
    00000A42 7E               [ 8] 2352 	ld	a, (hl)
    00000A43 F8 38            [12] 2353 	ldhl	sp,	#56
    00000A45 77               [ 8] 2354 	ld	(hl), a
    00000A46 F8 14            [12] 2355 	ldhl	sp,	#20
    00000A48 7E               [ 8] 2356 	ld	a, (hl)
    00000A49 F8 33            [12] 2357 	ldhl	sp,	#51
    00000A4B 22               [ 8] 2358 	ld	(hl+), a
    00000A4C 07               [ 4] 2359 	rlca
    00000A4D 9F               [ 4] 2360 	sbc	a, a
    00000A4E 77               [ 8] 2361 	ld	(hl), a
    00000A4F CB 41            [ 8] 2362 	bit	0, c
    00000A51 28 30            [12] 2363 	jr	Z, 00138$
    00000A53 F8 38            [12] 2364 	ldhl	sp,	#56
    00000A55 CB 2E            [16] 2365 	sra	(hl)
    00000A57 2B               [ 8] 2366 	dec	hl
    00000A58 CB 1E            [16] 2367 	rr	(hl)
    00000A5A 23               [ 8] 2368 	inc	hl
    00000A5B CB 2E            [16] 2369 	sra	(hl)
    00000A5D 2B               [ 8] 2370 	dec	hl
    00000A5E CB 1E            [16] 2371 	rr	(hl)
    00000A60 23               [ 8] 2372 	inc	hl
    00000A61 CB 2E            [16] 2373 	sra	(hl)
    00000A63 2B               [ 8] 2374 	dec	hl
    00000A64 CB 1E            [16] 2375 	rr	(hl)
    00000A66 23               [ 8] 2376 	inc	hl
    00000A67 CB 2E            [16] 2377 	sra	(hl)
    00000A69 2B               [ 8] 2378 	dec	hl
    00000A6A CB 1E            [16] 2379 	rr	(hl)
    00000A6C FAr00r00         [16] 2380 	ld	a, (#_camera + 0)
    00000A6F 5F               [ 4] 2381 	ld	e, a
    00000A70 07               [ 4] 2382 	rlca
    00000A71 9F               [ 4] 2383 	sbc	a, a
    00000A72 57               [ 4] 2384 	ld	d, a
    00000A73 2A               [ 8] 2385 	ld	a, (hl+)
    00000A74 46               [ 8] 2386 	ld	b, (hl)
    00000A75 93               [ 4] 2387 	sub	a, e
    00000A76 5F               [ 4] 2388 	ld	e, a
    00000A77 78               [ 4] 2389 	ld	a, b
    00000A78 9A               [ 4] 2390 	sbc	a, d
    00000A79 57               [ 4] 2391 	ld	d, a
    00000A7A F8 33            [12] 2392 	ldhl	sp,	#51
    00000A7C 2A               [ 8] 2393 	ld	a,	(hl+)
    00000A7D 66               [ 8] 2394 	ld	h, (hl)
    00000A7E 6F               [ 4] 2395 	ld	l, a
    00000A7F 19               [ 8] 2396 	add	hl, de
    00000A80 45               [ 4] 2397 	ld	b, l
    00000A81 18 0C            [12] 2398 	jr	00139$
    00000A83                       2399 00138$:
    00000A83 F8 37            [12] 2400 	ldhl	sp,	#55
    00000A85 2A               [ 8] 2401 	ld	a, (hl+)
    00000A86 5F               [ 4] 2402 	ld	e, a
    00000A87 56               [ 8] 2403 	ld	d, (hl)
    00000A88 F8 33            [12] 2404 	ldhl	sp,	#51
    00000A8A 2A               [ 8] 2405 	ld	a,	(hl+)
    00000A8B 66               [ 8] 2406 	ld	h, (hl)
    00000A8C 6F               [ 4] 2407 	ld	l, a
    00000A8D 19               [ 8] 2408 	add	hl, de
    00000A8E 45               [ 4] 2409 	ld	b, l
    00000A8F                       2410 00139$:
    00000A8F F8 30            [12] 2411 	ldhl	sp,	#48
    00000A91 70               [ 8] 2412 	ld	(hl), b
                                   2413 ;Source/Engine/Systems/render_sprite_system.c:42: int16_t screenY = s.isWorld ? (TO_INT(position.y) - camera.y + s.offset.y) : position.y + s.offset.y;
    00000A92 F8 15            [12] 2414 	ldhl	sp,	#21
    00000A94 7E               [ 8] 2415 	ld	a, (hl)
    00000A95 F8 33            [12] 2416 	ldhl	sp,	#51
    00000A97 22               [ 8] 2417 	ld	(hl+), a
    00000A98 07               [ 4] 2418 	rlca
    00000A99 9F               [ 4] 2419 	sbc	a, a
    00000A9A 77               [ 8] 2420 	ld	(hl), a
    00000A9B CB 41            [ 8] 2421 	bit	0, c
    00000A9D 28 2B            [12] 2422 	jr	Z, 00140$
    00000A9F F8 0D            [12] 2423 	ldhl	sp,	#13
    00000AA1 2A               [ 8] 2424 	ld	a, (hl+)
    00000AA2 4F               [ 4] 2425 	ld	c, a
    00000AA3 46               [ 8] 2426 	ld	b, (hl)
    00000AA4 CB 28            [ 8] 2427 	sra	b
    00000AA6 CB 19            [ 8] 2428 	rr	c
    00000AA8 CB 28            [ 8] 2429 	sra	b
    00000AAA CB 19            [ 8] 2430 	rr	c
    00000AAC CB 28            [ 8] 2431 	sra	b
    00000AAE CB 19            [ 8] 2432 	rr	c
    00000AB0 CB 28            [ 8] 2433 	sra	b
    00000AB2 CB 19            [ 8] 2434 	rr	c
    00000AB4 FAr01r00         [16] 2435 	ld	a, (#(_camera + 1) + 0)
    00000AB7 5F               [ 4] 2436 	ld	e, a
    00000AB8 07               [ 4] 2437 	rlca
    00000AB9 9F               [ 4] 2438 	sbc	a, a
    00000ABA 57               [ 4] 2439 	ld	d, a
    00000ABB 79               [ 4] 2440 	ld	a, c
    00000ABC 93               [ 4] 2441 	sub	a, e
    00000ABD 4F               [ 4] 2442 	ld	c, a
    00000ABE 78               [ 4] 2443 	ld	a, b
    00000ABF 9A               [ 4] 2444 	sbc	a, d
    00000AC0 47               [ 4] 2445 	ld	b, a
    00000AC1 F8 33            [12] 2446 	ldhl	sp,	#51
    00000AC3 2A               [ 8] 2447 	ld	a,	(hl+)
    00000AC4 66               [ 8] 2448 	ld	h, (hl)
    00000AC5 6F               [ 4] 2449 	ld	l, a
    00000AC6 09               [ 8] 2450 	add	hl, bc
    00000AC7 4D               [ 4] 2451 	ld	c, l
    00000AC8 18 16            [12] 2452 	jr	00141$
    00000ACA                       2453 00140$:
    00000ACA F8 0D            [12] 2454 	ldhl	sp,	#13
    00000ACC 7E               [ 8] 2455 	ld	a, (hl)
    00000ACD F8 37            [12] 2456 	ldhl	sp,	#55
    00000ACF 77               [ 8] 2457 	ld	(hl), a
    00000AD0 F8 0E            [12] 2458 	ldhl	sp,	#14
    00000AD2 7E               [ 8] 2459 	ld	a, (hl)
    00000AD3 F8 38            [12] 2460 	ldhl	sp,	#56
    00000AD5 32               [ 8] 2461 	ld	(hl-), a
    00000AD6 2A               [ 8] 2462 	ld	a, (hl+)
    00000AD7 4F               [ 4] 2463 	ld	c, a
    00000AD8 46               [ 8] 2464 	ld	b, (hl)
    00000AD9 F8 33            [12] 2465 	ldhl	sp,	#51
    00000ADB 2A               [ 8] 2466 	ld	a,	(hl+)
    00000ADC 66               [ 8] 2467 	ld	h, (hl)
    00000ADD 6F               [ 4] 2468 	ld	l, a
    00000ADE 09               [ 8] 2469 	add	hl, bc
    00000ADF 4D               [ 4] 2470 	ld	c, l
    00000AE0                       2471 00141$:
    00000AE0 F8 31            [12] 2472 	ldhl	sp,	#49
    00000AE2 71               [ 8] 2473 	ld	(hl), c
                                   2474 ;Source/Engine/Systems/render_sprite_system.c:44: uint8_t numTiles = s.width * s.height;
    00000AE3 F8 12            [12] 2475 	ldhl	sp,	#18
    00000AE5 2A               [ 8] 2476 	ld	a, (hl+)
    00000AE6 5E               [ 8] 2477 	ld	e, (hl)
                                   2478 ;Source/Engine/Systems/render_sprite_system.c:45: set_sprite_data(spriteOAMIndex, numTiles, s.tileData);
    00000AE7 CDr00r00         [24] 2479 	call	__muluchar
    00000AEA F8 19            [12] 2480 	ldhl	sp,	#25
    00000AEC 2A               [ 8] 2481 	ld	a, (hl+)
    00000AED 47               [ 4] 2482 	ld	b, a
    00000AEE 66               [ 8] 2483 	ld	h, (hl)
    00000AEF 68               [ 4] 2484 	ld	l, b
    00000AF0 E5               [16] 2485 	push	hl
    00000AF1 79               [ 4] 2486 	ld	a, c
    00000AF2 F5               [16] 2487 	push	af
    00000AF3 33               [ 8] 2488 	inc	sp
    00000AF4 F8 38            [12] 2489 	ldhl	sp,	#56
    00000AF6 7E               [ 8] 2490 	ld	a, (hl)
    00000AF7 F5               [16] 2491 	push	af
    00000AF8 33               [ 8] 2492 	inc	sp
    00000AF9 CDr00r00         [24] 2493 	call	_set_sprite_data
    00000AFC E8 04            [16] 2494 	add	sp, #4
                                   2495 ;Source/Engine/Systems/render_sprite_system.c:49: for (uint8_t tx = 0; tx < s.width; tx++) {
    00000AFE F8 37            [12] 2496 	ldhl	sp,	#55
    00000B00 36 00            [12] 2497 	ld	(hl), #0x00
    00000B02                       2498 00131$:
    00000B02 F8 12            [12] 2499 	ldhl	sp,	#18
    00000B04 4E               [ 8] 2500 	ld	c, (hl)
    00000B05 F8 37            [12] 2501 	ldhl	sp,	#55
    00000B07 7E               [ 8] 2502 	ld	a, (hl)
    00000B08 91               [ 4] 2503 	sub	a, c
    00000B09 D2r8Br0B         [16] 2504 	jp	NC, 00135$
                                   2505 ;Source/Engine/Systems/render_sprite_system.c:50: for (uint8_t ty = 0; ty < s.height; ty++) {
    00000B0C 2B               [ 8] 2506 	dec	hl
    00000B0D 2B               [ 8] 2507 	dec	hl
    00000B0E 7E               [ 8] 2508 	ld	a, (hl)
    00000B0F F8 38            [12] 2509 	ldhl	sp,	#56
    00000B11 77               [ 8] 2510 	ld	(hl), a
    00000B12 0E 00            [ 8] 2511 	ld	c, #0x00
    00000B14                       2512 00128$:
    00000B14 F8 13            [12] 2513 	ldhl	sp,	#19
    00000B16 46               [ 8] 2514 	ld	b, (hl)
    00000B17 79               [ 4] 2515 	ld	a, c
    00000B18 90               [ 4] 2516 	sub	a, b
    00000B19 30 6A            [12] 2517 	jr	NC, 00132$
                                   2518 ;Source/Engine/Systems/render_sprite_system.c:51: if (spriteOAMIndex >= 40) return; // Max hardware sprites
    00000B1B F8 38            [12] 2519 	ldhl	sp,	#56
    00000B1D 7E               [ 8] 2520 	ld	a, (hl)
    00000B1E D6 28            [ 8] 2521 	sub	a, #0x28
    00000B20 30 6F            [12] 2522 	jr	NC, 00136$
                                   2523 ;/opt/gbdk/include/gb/gb.h:1887: shadow_OAM[nb].tile=tile;
    00000B22 F8 38            [12] 2524 	ldhl	sp,	#56
    00000B24 46               [ 8] 2525 	ld	b, (hl)
    00000B25 AF               [ 4] 2526 	xor	a, a
    00000B26 CB 20            [ 8] 2527 	sla	b
    00000B28 8F               [ 4] 2528 	adc	a, a
    00000B29 CB 20            [ 8] 2529 	sla	b
    00000B2B 8F               [ 4] 2530 	adc	a, a
    00000B2C F8 32            [12] 2531 	ldhl	sp,	#50
    00000B2E 70               [ 8] 2532 	ld	(hl), b
    00000B2F 23               [ 8] 2533 	inc	hl
    00000B30 77               [ 8] 2534 	ld	(hl), a
    00000B31 11r00r00         [12] 2535 	ld	de, #_shadow_OAM
    00000B34 3A               [ 8] 2536 	ld	a, (hl-)
    00000B35 6E               [ 8] 2537 	ld	l, (hl)
    00000B36 67               [ 4] 2538 	ld	h, a
    00000B37 19               [ 8] 2539 	add	hl, de
    00000B38 23               [ 8] 2540 	inc	hl
    00000B39 23               [ 8] 2541 	inc	hl
    00000B3A 5D               [ 4] 2542 	ld	e, l
    00000B3B 54               [ 4] 2543 	ld	d, h
    00000B3C F8 38            [12] 2544 	ldhl	sp,	#56
    00000B3E 7E               [ 8] 2545 	ld	a, (hl)
    00000B3F 12               [ 8] 2546 	ld	(de), a
                                   2547 ;Source/Engine/Systems/render_sprite_system.c:55: set_sprite_prop(spriteOAMIndex, s.flipProps);
    00000B40 F8 1B            [12] 2548 	ldhl	sp,	#27
    00000B42 46               [ 8] 2549 	ld	b, (hl)
                                   2550 ;/opt/gbdk/include/gb/gb.h:1946: shadow_OAM[nb].prop=prop;
    00000B43 11r00r00         [12] 2551 	ld	de, #_shadow_OAM
    00000B46 F8 32            [12] 2552 	ldhl	sp,	#50
    00000B48 2A               [ 8] 2553 	ld	a,	(hl+)
    00000B49 66               [ 8] 2554 	ld	h, (hl)
    00000B4A 6F               [ 4] 2555 	ld	l, a
    00000B4B 19               [ 8] 2556 	add	hl, de
    00000B4C 23               [ 8] 2557 	inc	hl
    00000B4D 23               [ 8] 2558 	inc	hl
    00000B4E 23               [ 8] 2559 	inc	hl
    00000B4F 5D               [ 4] 2560 	ld	e, l
    00000B50 54               [ 4] 2561 	ld	d, h
    00000B51 78               [ 4] 2562 	ld	a, b
    00000B52 12               [ 8] 2563 	ld	(de), a
                                   2564 ;Source/Engine/Systems/render_sprite_system.c:56: move_sprite(spriteOAMIndex, screenX + tx * 8, screenY + ty * 8);
    00000B53 79               [ 4] 2565 	ld	a, c
    00000B54 87               [ 4] 2566 	add	a, a
    00000B55 87               [ 4] 2567 	add	a, a
    00000B56 87               [ 4] 2568 	add	a, a
    00000B57 F8 31            [12] 2569 	ldhl	sp,	#49
    00000B59 86               [ 8] 2570 	add	a, (hl)
    00000B5A F8 34            [12] 2571 	ldhl	sp,	#52
    00000B5C 77               [ 8] 2572 	ld	(hl), a
    00000B5D F8 37            [12] 2573 	ldhl	sp,	#55
    00000B5F 7E               [ 8] 2574 	ld	a, (hl)
    00000B60 87               [ 4] 2575 	add	a, a
    00000B61 87               [ 4] 2576 	add	a, a
    00000B62 87               [ 4] 2577 	add	a, a
    00000B63 F8 30            [12] 2578 	ldhl	sp,	#48
    00000B65 86               [ 8] 2579 	add	a, (hl)
    00000B66 F8 35            [12] 2580 	ldhl	sp,	#53
    00000B68 77               [ 8] 2581 	ld	(hl), a
                                   2582 ;/opt/gbdk/include/gb/gb.h:1973: OAM_item_t * itm = &shadow_OAM[nb];
    00000B69 11r00r00         [12] 2583 	ld	de, #_shadow_OAM
    00000B6C F8 32            [12] 2584 	ldhl	sp,	#50
    00000B6E 2A               [ 8] 2585 	ld	a,	(hl+)
    00000B6F 66               [ 8] 2586 	ld	h, (hl)
    00000B70 6F               [ 4] 2587 	ld	l, a
    00000B71 19               [ 8] 2588 	add	hl, de
    00000B72 5D               [ 4] 2589 	ld	e, l
    00000B73 54               [ 4] 2590 	ld	d, h
                                   2591 ;/opt/gbdk/include/gb/gb.h:1974: itm->y=y, itm->x=x;
    00000B74 F8 34            [12] 2592 	ldhl	sp,	#52
    00000B76 2A               [ 8] 2593 	ld	a, (hl+)
    00000B77 12               [ 8] 2594 	ld	(de), a
    00000B78 13               [ 8] 2595 	inc	de
    00000B79 7E               [ 8] 2596 	ld	a, (hl)
    00000B7A 12               [ 8] 2597 	ld	(de), a
                                   2598 ;Source/Engine/Systems/render_sprite_system.c:57: spriteOAMIndex++;
    00000B7B F8 38            [12] 2599 	ldhl	sp,	#56
    00000B7D 34               [12] 2600 	inc	(hl)
    00000B7E 7E               [ 8] 2601 	ld	a, (hl)
    00000B7F F8 35            [12] 2602 	ldhl	sp,	#53
    00000B81 77               [ 8] 2603 	ld	(hl), a
                                   2604 ;Source/Engine/Systems/render_sprite_system.c:50: for (uint8_t ty = 0; ty < s.height; ty++) {
    00000B82 0C               [ 4] 2605 	inc	c
    00000B83 18 8F            [12] 2606 	jr	00128$
    00000B85                       2607 00132$:
                                   2608 ;Source/Engine/Systems/render_sprite_system.c:49: for (uint8_t tx = 0; tx < s.width; tx++) {
    00000B85 F8 37            [12] 2609 	ldhl	sp,	#55
    00000B87 34               [12] 2610 	inc	(hl)
    00000B88 C3r02r0B         [16] 2611 	jp	00131$
    00000B8B                       2612 00135$:
                                   2613 ;Source/Engine/Systems/render_sprite_system.c:28: for (uint8_t i = 0; i < spriteCount; i++) {
    00000B8B F8 36            [12] 2614 	ldhl	sp,	#54
    00000B8D 34               [12] 2615 	inc	(hl)
    00000B8E C3r63r08         [16] 2616 	jp	00134$
    00000B91                       2617 00136$:
                                   2618 ;Source/Engine/Systems/render_sprite_system.c:62: }
    00000B91 E8 39            [16] 2619 	add	sp, #57
    00000B93 C9               [16] 2620 	ret
                                   2621 ;Source/Engine/Systems/render_sprite_system.c:65: void clearZIndexArray(void) {
                                   2622 ;	---------------------------------
                                   2623 ; Function clearZIndexArray
                                   2624 ; ---------------------------------
    00000B94                       2625 _clearZIndexArray::
                                   2626 ;Source/Engine/Systems/render_sprite_system.c:67: for (i = 0; i < SPRITE_POOL_SIZE; i++) {
    00000B94 0E 00            [ 8] 2627 	ld	c, #0x00
    00000B96                       2628 00102$:
                                   2629 ;Source/Engine/Systems/render_sprite_system.c:68: spriteIDByZIndex[i] = 0;
    00000B96 21r00r00         [12] 2630 	ld	hl, #_spriteIDByZIndex
    00000B99 06 00            [ 8] 2631 	ld	b, #0x00
    00000B9B 09               [ 8] 2632 	add	hl, bc
    00000B9C 36 00            [12] 2633 	ld	(hl), #0x00
                                   2634 ;Source/Engine/Systems/render_sprite_system.c:67: for (i = 0; i < SPRITE_POOL_SIZE; i++) {
    00000B9E 0C               [ 4] 2635 	inc	c
    00000B9F 79               [ 4] 2636 	ld	a, c
    00000BA0 D6 32            [ 8] 2637 	sub	a, #0x32
    00000BA2 38 F2            [12] 2638 	jr	C, 00102$
                                   2639 ;Source/Engine/Systems/render_sprite_system.c:70: }
    00000BA4 C9               [16] 2640 	ret
                                   2641 ;Source/Engine/Systems/render_sprite_system.c:73: uint8_t sortEntitiesByZIndex(void) {
                                   2642 ;	---------------------------------
                                   2643 ; Function sortEntitiesByZIndex
                                   2644 ; ---------------------------------
    00000BA5                       2645 _sortEntitiesByZIndex::
    00000BA5 E8 FD            [16] 2646 	add	sp, #-3
                                   2647 ;Source/Engine/Systems/render_sprite_system.c:74: clearZIndexArray();
    00000BA7 CDr94r0B         [24] 2648 	call	_clearZIndexArray
                                   2649 ;Source/Engine/Systems/render_sprite_system.c:76: entityCount = 0;
                                   2650 ;Source/Engine/Systems/render_sprite_system.c:77: for (zIndex = 0; zIndex < 8; zIndex++) {
    00000BAA 1E 00            [ 8] 2651 	ld	e, #0x00
    00000BAC 4B               [ 4] 2652 	ld	c, e
                                   2653 ;Source/Engine/Systems/render_sprite_system.c:78: for (entityID = 0; entityID < SPRITE_POOL_SIZE; entityID++) {
    00000BAD                       2654 00112$:
    00000BAD 43               [ 4] 2655 	ld	b, e
    00000BAE F8 02            [12] 2656 	ldhl	sp,	#2
    00000BB0 36 00            [12] 2657 	ld	(hl), #0x00
    00000BB2                       2658 00105$:
                                   2659 ;Source/Engine/Systems/render_sprite_system.c:79: if (SPRITE_GET_Z(spriteComponent.flags[entityID]) == zIndex) {
    00000BB2 11r90r01         [12] 2660 	ld	de, #(_spriteComponent + 400)
    00000BB5 F8 02            [12] 2661 	ldhl	sp,	#2
    00000BB7 6E               [ 8] 2662 	ld	l, (hl)
    00000BB8 26 00            [ 8] 2663 	ld	h, #0x00
    00000BBA 19               [ 8] 2664 	add	hl, de
    00000BBB 5D               [ 4] 2665 	ld	e, l
    00000BBC 54               [ 4] 2666 	ld	d, h
    00000BBD 1A               [ 8] 2667 	ld	a, (de)
    00000BBE E6 38            [ 8] 2668 	and	a, #0x38
    00000BC0 CB 37            [ 8] 2669 	swap	a
    00000BC2 07               [ 4] 2670 	rlca
    00000BC3 E6 1F            [ 8] 2671 	and	a, #0x1f
    00000BC5 91               [ 4] 2672 	sub	a, c
    00000BC6 20 1A            [12] 2673 	jr	NZ, 00106$
                                   2674 ;Source/Engine/Systems/render_sprite_system.c:80: spriteIDByZIndex[entityCount] = spriteComponent.entityID[entityID];
    00000BC8 11r00r00         [12] 2675 	ld	de, #_spriteIDByZIndex
    00000BCB 68               [ 4] 2676 	ld	l, b
    00000BCC 26 00            [ 8] 2677 	ld	h, #0x00
    00000BCE 19               [ 8] 2678 	add	hl, de
    00000BCF 33               [ 8] 2679 	inc	sp
    00000BD0 33               [ 8] 2680 	inc	sp
    00000BD1 E5               [16] 2681 	push	hl
    00000BD2 11r00r00         [12] 2682 	ld	de, #_spriteComponent
    00000BD5 F8 02            [12] 2683 	ldhl	sp,	#2
    00000BD7 6E               [ 8] 2684 	ld	l, (hl)
    00000BD8 26 00            [ 8] 2685 	ld	h, #0x00
    00000BDA 19               [ 8] 2686 	add	hl, de
    00000BDB 5D               [ 4] 2687 	ld	e, l
    00000BDC 54               [ 4] 2688 	ld	d, h
    00000BDD 1A               [ 8] 2689 	ld	a, (de)
    00000BDE E1               [12] 2690 	pop	hl
    00000BDF E5               [16] 2691 	push	hl
    00000BE0 77               [ 8] 2692 	ld	(hl), a
                                   2693 ;Source/Engine/Systems/render_sprite_system.c:81: entityCount++;
    00000BE1 04               [ 4] 2694 	inc	b
    00000BE2                       2695 00106$:
                                   2696 ;Source/Engine/Systems/render_sprite_system.c:78: for (entityID = 0; entityID < SPRITE_POOL_SIZE; entityID++) {
    00000BE2 F8 02            [12] 2697 	ldhl	sp,	#2
    00000BE4 34               [12] 2698 	inc	(hl)
    00000BE5 7E               [ 8] 2699 	ld	a, (hl)
    00000BE6 D6 32            [ 8] 2700 	sub	a, #0x32
    00000BE8 38 C8            [12] 2701 	jr	C, 00105$
                                   2702 ;Source/Engine/Systems/render_sprite_system.c:77: for (zIndex = 0; zIndex < 8; zIndex++) {
    00000BEA 58               [ 4] 2703 	ld	e, b
    00000BEB 0C               [ 4] 2704 	inc	c
    00000BEC 79               [ 4] 2705 	ld	a, c
    00000BED D6 08            [ 8] 2706 	sub	a, #0x08
    00000BEF 38 BC            [12] 2707 	jr	C, 00112$
                                   2708 ;Source/Engine/Systems/render_sprite_system.c:85: return entityCount;
    00000BF1 78               [ 4] 2709 	ld	a, b
                                   2710 ;Source/Engine/Systems/render_sprite_system.c:86: }
    00000BF2 E8 03            [16] 2711 	add	sp, #3
    00000BF4 C9               [16] 2712 	ret
                                   2713 	.area _CODE
                                   2714 	.area _INITIALIZER
    00000000                       2715 __xinit__camera:
    00000000 00                    2716 	.db #0x00	;  0
    00000001 00                    2717 	.db #0x00	;  0
                                   2718 	.area _CABS (ABS)
